ccopy_reg
_reconstructor
p0
(cnetworkx.classes.graph
Graph
p1
c__builtin__
object
p2
Ntp3
Rp4
(dp5
S'node'
p6
(dp7
S'Frontal_Mid_R_18'
p8
(dp9
sS'Supp_Motor_Area_L_9'
p10
(dp11
sS'Rectus_L_2'
p12
(dp13
sS'Frontal_Mid_R_12'
p14
(dp15
sS'Supp_Motor_Area_L_4'
p16
(dp17
sS'Supp_Motor_Area_L_7'
p18
(dp19
sS'Frontal_Mid_R_16'
p20
(dp21
sS'Frontal_Mid_R_17'
p22
(dp23
sS'Supp_Motor_Area_L_3'
p24
(dp25
sS'Frontal_Mid_R_15'
p26
(dp27
sS'Frontal_Mid_R_13'
p28
(dp29
sS'Supp_Motor_Area_L_1'
p30
(dp31
sS'Supp_Motor_Area_R_9'
p32
(dp33
sS'Supp_Motor_Area_R_8'
p34
(dp35
sS'Supp_Motor_Area_R_7'
p36
(dp37
sS'Supp_Motor_Area_R_4'
p38
(dp39
sS'Precentral_L_10'
p40
(dp41
sS'Precentral_L_11'
p42
(dp43
sS'Precentral_L_14'
p44
(dp45
sS'Precentral_L_1'
p46
(dp47
sS'Precentral_L_2'
p48
(dp49
sS'Precentral_L_3'
p50
(dp51
sS'Precentral_L_4'
p52
(dp53
sS'Precentral_L_5'
p54
(dp55
sS'Precentral_L_7'
p56
(dp57
sS'Frontal_Mid_R_8'
p58
(dp59
sS'Frontal_Inf_Oper_R_3'
p60
(dp61
sS'Frontal_Inf_Oper_R_1'
p62
(dp63
sS'Frontal_Inf_Oper_R_5'
p64
(dp65
sS'Frontal_Inf_Oper_R_4'
p66
(dp67
sS'Frontal_Sup_R_16'
p68
(dp69
sS'Frontal_Mid_R_5'
p70
(dp71
sS'Frontal_Mid_R_7'
p72
(dp73
sS'Frontal_Sup_L_12'
p74
(dp75
sS'Frontal_Mid_L_7'
p76
(dp77
sS'Frontal_Mid_L_4'
p78
(dp79
sS'Frontal_Mid_L_9'
p80
(dp81
sS'Frontal_Sup_Medial_R_9'
p82
(dp83
sS'Frontal_Sup_L_2'
p84
(dp85
sS'Frontal_Sup_L_7'
p86
(dp87
sS'Frontal_Sup_R_9'
p88
(dp89
sS'Frontal_Sup_Medial_L_6'
p90
(dp91
sS'Frontal_Inf_Tri_R_1'
p92
(dp93
sS'Frontal_Inf_Tri_L_10'
p94
(dp95
sS'Frontal_Inf_Tri_R_2'
p96
(dp97
sS'Frontal_Mid_Orb_L_1'
p98
(dp99
sS'Precentral_L_12'
p100
(dp101
sS'Frontal_Inf_Tri_R_6'
p102
(dp103
sS'Frontal_Inf_Tri_L_4'
p104
(dp105
sS'Precentral_L_8'
p106
(dp107
sS'Precentral_L_9'
p108
(dp109
sS'Precentral_R_10'
p110
(dp111
sS'Precentral_R_11'
p112
(dp113
sS'Frontal_Inf_Tri_R_4'
p114
(dp115
sS'Precentral_R_2'
p116
(dp117
sS'Precentral_R_6'
p118
(dp119
sS'Precentral_R_4'
p120
(dp121
sS'Precentral_R_8'
p122
(dp123
sS'Cingulum_Ant_L_2'
p124
(dp125
sS'Frontal_Inf_Orb_R_5'
p126
(dp127
sS'Frontal_Inf_Oper_L_1'
p128
(dp129
sS'Frontal_Inf_Oper_L_3'
p130
(dp131
sS'Frontal_Inf_Oper_L_2'
p132
(dp133
sS'Frontal_Mid_L_14'
p134
(dp135
sS'Frontal_Mid_L_10'
p136
(dp137
ssS'node_dict_factory'
p138
c__builtin__
dict
p139
sS'edge_attr_dict_factory'
p140
g139
sS'edge'
p141
(dp142
g116
(dp143
g134
(dp144
S'weight'
p145
F0.02040816326530612
ssg112
(dp146
g145
F0.021739130434782608
ssg18
(dp147
g145
F0.02
ssg52
(dp148
g145
F0.023255813953488372
ssg32
(dp149
g145
F0.022727272727272728
sssg84
(dp150
g124
(dp151
g145
F0.02040816326530612
ssg130
(dp152
g145
F0.02040816326530612
ssg118
(dp153
g145
F0.038461538461538464
ssg34
(dp154
g145
F0.018867924528301886
ssg58
(dp155
g145
F0.018867924528301886
ssg108
(dp156
g145
F0.02
ssg72
(dp157
g145
F0.02040816326530612
ssg42
(dp158
g145
F0.028985507246376812
sssg10
(dp159
g60
(dp160
g145
F0.02127659574468085
ssg80
(dp161
g145
F0.021739130434782608
ssg38
(dp162
g145
F0.0273972602739726
ssg104
(dp163
g145
F0.023255813953488372
ssg86
(dp164
g145
F0.022222222222222223
sssg12
(dp165
g122
(dp166
g145
F0.015873015873015872
ssg38
(dp167
g145
F0.01694915254237288
sssg86
(dp168
g16
(dp169
g145
F0.02
ssg42
(dp170
g145
F0.0196078431372549
ssg10
g164
sg32
(dp171
g145
F0.021739130434782608
sssg14
(dp172
g110
(dp173
g145
F0.023809523809523808
ssg16
(dp174
g145
F0.018518518518518517
ssg24
(dp175
g145
F0.01818181818181818
sssg16
(dp176
g132
(dp177
g145
F0.018867924528301886
ssg118
(dp178
g145
F0.0273972602739726
ssg56
(dp179
g145
F0.018518518518518517
ssg58
(dp180
g145
F0.02127659574468085
ssg86
g169
sg92
(dp181
g145
F0.022222222222222223
ssg134
(dp182
g145
F0.031746031746031744
ssg14
g174
sg40
(dp183
g145
F0.02127659574468085
ssg38
(dp184
g145
F0.03896103896103896
ssg110
(dp185
g145
F0.0196078431372549
ssg34
(dp186
g145
F0.02127659574468085
sssg18
(dp187
g116
g147
sg48
(dp188
g145
F0.017857142857142856
ssg104
(dp189
g145
F0.02
ssg66
(dp190
g145
F0.020833333333333332
ssg40
(dp191
g145
F0.02040816326530612
ssg68
(dp192
g145
F0.020833333333333332
sssg20
(dp193
g122
(dp194
g145
F0.01639344262295082
sssg22
(dp195
g60
(dp196
g145
F0.022727272727272728
ssg48
(dp197
g145
F0.021739130434782608
ssg80
(dp198
g145
F0.023255813953488372
ssg42
(dp199
g145
F0.017857142857142856
ssg88
(dp200
g145
F0.02040816326530612
sssg24
(dp201
g60
(dp202
g145
F0.018867924528301886
ssg48
(dp203
g145
F0.01818181818181818
ssg14
g175
sg28
(dp204
g145
F0.03125
ssg134
(dp205
g145
F0.03125
ssg68
(dp206
g145
F0.02127659574468085
ssg42
(dp207
g145
F0.03125
sssg26
(dp208
g28
(dp209
g145
F0.020833333333333332
ssg54
(dp210
g145
F0.02
ssg32
(dp211
g145
F0.023255813953488372
ssg112
(dp212
g145
F0.022222222222222223
sssg8
(dp213
g38
(dp214
g145
F0.017241379310344827
sssg88
(dp215
g52
(dp216
g145
F0.019230769230769232
ssg64
(dp217
g145
F0.018518518518518517
ssg120
(dp218
g145
F0.023255813953488372
ssg38
(dp219
g145
F0.027777777777777776
ssg22
g200
sg44
(dp220
g145
F0.022727272727272728
ssg118
(dp221
g145
F0.029850746268656716
ssg80
(dp222
g145
F0.022222222222222223
ssg32
(dp223
g145
F0.018867924528301886
sssg28
(dp224
g48
(dp225
g145
F0.01818181818181818
ssg50
(dp226
g145
F0.02127659574468085
ssg70
(dp227
g145
F0.021739130434782608
ssg120
(dp228
g145
F0.02
ssg66
(dp229
g145
F0.02127659574468085
ssg24
g204
sg26
g209
sg132
(dp230
g145
F0.018518518518518517
sssg30
(dp231
g36
(dp232
g145
F0.020833333333333332
sssg32
(dp233
g116
g149
sg46
(dp234
g145
F0.02
ssg48
(dp235
g145
F0.02
ssg132
(dp236
g145
F0.02040816326530612
ssg120
(dp237
g145
F0.022222222222222223
ssg86
g171
sg34
(dp238
g145
F0.023255813953488372
ssg26
g211
sg94
(dp239
g145
F0.023255813953488372
ssg88
g223
ssg34
(dp240
g84
g154
sg118
(dp241
g145
F0.017241379310344827
ssg32
g238
sg16
g186
sg38
(dp242
g145
F0.015873015873015872
ssg42
(dp243
g145
F0.020833333333333332
ssg112
(dp244
g145
F0.022222222222222223
sssg36
(dp245
g60
(dp246
g145
F0.017857142857142856
ssg48
(dp247
g145
F0.017241379310344827
ssg58
(dp248
g145
F0.0196078431372549
ssg108
(dp249
g145
F0.020833333333333332
ssg30
g232
sg62
(dp250
g145
F0.020833333333333332
ssg134
(dp251
g145
F0.029850746268656716
ssg40
(dp252
g145
F0.0196078431372549
ssg94
(dp253
g145
F0.0196078431372549
ssg110
(dp254
g145
F0.01818181818181818
ssg112
(dp255
g145
F0.03125
ssg102
(dp256
g145
F0.020833333333333332
sssg38
(dp257
g128
(dp258
g145
F0.017543859649122806
ssg8
g214
sg50
(dp259
g145
F0.016129032258064516
ssg10
g162
sg54
(dp260
g145
F0.0375
ssg12
g167
sg72
(dp261
g145
F0.01694915254237288
ssg108
(dp262
g145
F0.016666666666666666
ssg34
g242
sg62
(dp263
g145
F0.016666666666666666
ssg100
(dp264
g145
F0.017543859649122806
ssg90
(dp265
g145
F0.017241379310344827
ssg136
(dp266
g145
F0.017543859649122806
ssg76
(dp267
g145
F0.017543859649122806
ssg16
g184
sg88
g219
sg98
(dp268
g145
F0.017241379310344827
sssg110
(dp269
g46
(dp270
g145
F0.023809523809523808
ssg132
(dp271
g145
F0.024390243902439025
ssg52
(dp272
g145
F0.021739130434782608
ssg14
g173
sg16
g185
sg36
g254
sg42
(dp273
g145
F0.019230769230769232
ssg112
(dp274
g145
F0.02040816326530612
sssg94
(dp275
g118
(dp276
g145
F0.017241379310344827
ssg54
(dp277
g145
F0.02
ssg32
g239
sg36
g253
sg64
(dp278
g145
F0.022727272727272728
ssg112
(dp279
g145
F0.022222222222222223
sssg68
(dp280
g18
g192
sg118
(dp281
g145
F0.017543859649122806
ssg24
g206
ssg114
(dp282
g122
(dp283
g145
F0.016129032258064516
sssg104
(dp284
g112
(dp285
g145
F0.021739130434782608
ssg18
g189
sg52
(dp286
g145
F0.023255813953488372
ssg10
g163
ssg40
(dp287
g118
(dp288
g145
F0.017241379310344827
ssg36
g252
sg16
g183
sg18
g191
sg134
(dp289
g145
F0.020833333333333332
ssg122
(dp290
g145
F0.014925373134328358
sssg92
(dp291
g16
g181
sg42
(dp292
g145
F0.021739130434782608
ssg118
(dp293
g145
F0.017857142857142856
sssg112
(dp294
g116
g146
sg60
(dp295
g145
F0.02
ssg34
g244
sg58
(dp296
g145
F0.022222222222222223
ssg104
g285
sg26
g212
sg134
(dp297
g145
F0.03278688524590164
ssg36
g255
sg42
(dp298
g145
F0.03278688524590164
ssg94
g279
sg110
g274
ssg96
(dp299
g122
(dp300
g145
F0.016666666666666666
sssg98
(dp301
g38
g268
sg118
(dp302
g145
F0.018867924528301886
sssg102
(dp303
g36
g256
ssg46
(dp304
g32
g234
sg64
(dp305
g145
F0.0196078431372549
ssg122
(dp306
g145
F0.0273972602739726
ssg134
(dp307
g145
F0.01818181818181818
ssg110
g270
sg80
(dp308
g145
F0.023809523809523808
ssg54
(dp309
g145
F0.017543859649122806
sssg48
(dp310
g132
(dp311
g145
F0.022727272727272728
ssg52
(dp312
g145
F0.02040816326530612
ssg32
g235
sg64
(dp313
g145
F0.0196078431372549
ssg56
(dp314
g145
F0.022222222222222223
ssg36
g247
sg28
g225
sg18
g188
sg22
g197
sg24
g203
sg44
(dp315
g145
F0.024390243902439025
ssg80
(dp316
g145
F0.023809523809523808
sssg50
(dp317
g28
g226
sg38
g259
sg42
(dp318
g145
F0.02127659574468085
sssg52
(dp319
g116
g148
sg48
g312
sg132
(dp320
g145
F0.020833333333333332
ssg104
g286
sg110
g272
sg88
g216
ssg54
(dp321
g46
g309
sg56
(dp322
g145
F0.017543859649122806
ssg38
g260
sg26
g210
sg78
(dp323
g145
F0.02127659574468085
ssg94
g277
sg80
(dp324
g145
F0.018518518518518517
sssg56
(dp325
g60
(dp326
g145
F0.023255813953488372
ssg48
g314
sg54
g322
sg64
(dp327
g145
F0.0196078431372549
ssg16
g179
sg42
(dp328
g145
F0.01818181818181818
sssg106
(dp329
g118
(dp330
g145
F0.018867924528301886
sssg108
(dp331
g36
g249
sg84
g156
sg38
g262
ssg74
(dp332
g122
(dp333
g145
F0.016666666666666666
sssg60
(dp334
g132
(dp335
g145
F0.023809523809523808
ssg10
g160
sg64
(dp336
g145
F0.02040816326530612
ssg56
g326
sg36
g246
sg22
g196
sg24
g202
sg42
(dp337
g145
F0.018867924528301886
ssg112
g295
ssg62
(dp338
g36
g250
sg38
g263
sg118
(dp339
g145
F0.01818181818181818
sssg118
(dp340
g84
g153
sg70
(dp341
g145
F0.017857142857142856
ssg64
(dp342
g145
F0.02857142857142857
ssg72
(dp343
g145
F0.018518518518518517
ssg106
g330
sg16
g178
sg34
g241
sg62
g339
sg90
(dp344
g145
F0.018867924528301886
ssg68
g281
sg94
g276
sg92
g293
sg88
g221
sg98
g302
sg40
g288
ssg64
(dp345
g60
g336
sg46
g305
sg48
g313
sg118
g342
sg56
g327
sg44
(dp346
g145
F0.02127659574468085
ssg94
g278
sg88
g217
ssg66
(dp347
g28
g229
sg18
g190
sg42
(dp348
g145
F0.02127659574468085
sssg122
(dp349
g46
g306
sg130
(dp350
g145
F0.015873015873015872
ssg12
g166
sg82
(dp351
g145
F0.016666666666666666
ssg74
g333
sg20
g194
sg134
(dp352
g145
F0.036585365853658534
ssg40
g290
sg96
g300
sg114
g283
ssg124
(dp353
g84
g151
ssg100
(dp354
g38
g264
ssg90
(dp355
g38
g265
sg118
g344
ssg42
(dp356
g60
g337
sg84
g158
sg50
g318
sg86
g170
sg126
(dp357
g145
F0.02
ssg56
g328
sg22
g199
sg24
g207
sg134
(dp358
g145
F0.03125
ssg110
g273
sg132
(dp359
g145
F0.018518518518518517
ssg92
g292
sg112
g298
sg34
g243
sg66
g348
ssg44
(dp360
g48
g315
sg88
g220
sg64
g346
ssg70
(dp361
g134
(dp362
g145
F0.021739130434782608
ssg28
g227
sg118
g341
ssg72
(dp363
g84
g157
sg38
g261
sg118
g343
ssg58
(dp364
g134
(dp365
g145
F0.020833333333333332
ssg16
g180
sg36
g248
sg84
g155
sg112
g296
ssg76
(dp366
g38
g267
ssg78
(dp367
g54
g323
ssg80
(dp368
g46
g308
sg48
g316
sg10
g161
sg54
g324
sg22
g198
sg88
g222
ssg120
(dp369
g134
(dp370
g145
F0.02
ssg28
g228
sg88
g218
sg32
g237
ssg82
(dp371
g122
g351
ssg126
(dp372
g42
g357
ssg128
(dp373
g38
g258
ssg130
(dp374
g84
g152
sg122
g350
ssg132
(dp375
g60
g335
sg48
g311
sg52
g320
sg32
g236
sg28
g230
sg42
g359
sg16
g177
sg110
g271
ssg134
(dp376
g116
g144
sg46
g307
sg70
g362
sg120
g370
sg36
g251
sg16
g182
sg122
g352
sg24
g205
sg58
g365
sg40
g289
sg42
g358
sg112
g297
ssg136
(dp377
g38
g266
sssS'graph'
p378
(dp379
S'name'
p380
S'()'
p381
ssS'adjlist_dict_factory'
p382
g139
sS'adj'
p383
g142
sb.