ccopy_reg
_reconstructor
p0
(cnetworkx.classes.graph
Graph
p1
c__builtin__
object
p2
Ntp3
Rp4
(dp5
S'node'
p6
(dp7
S'Frontal_Mid_R_18'
p8
(dp9
sS'Frontal_Mid_R_19'
p10
(dp11
sS'Supp_Motor_Area_L_9'
p12
(dp13
sS'Rectus_L_1'
p14
(dp15
sS'Rectus_L_2'
p16
(dp17
sS'Rectus_L_3'
p18
(dp19
sS'Frontal_Mid_R_12'
p20
(dp21
sS'Frontal_Mid_R_13'
p22
(dp23
sS'Frontal_Mid_R_10'
p24
(dp25
sS'Frontal_Mid_R_11'
p26
(dp27
sS'Frontal_Mid_R_16'
p28
(dp29
sS'Frontal_Mid_R_17'
p30
(dp31
sS'Frontal_Mid_R_14'
p32
(dp33
sS'Frontal_Mid_R_15'
p34
(dp35
sS'Supp_Motor_Area_L_8'
p36
(dp37
sS'Supp_Motor_Area_L_5'
p38
(dp39
sS'Supp_Motor_Area_L_4'
p40
(dp41
sS'Supp_Motor_Area_L_7'
p42
(dp43
sS'Supp_Motor_Area_L_6'
p44
(dp45
sS'Supp_Motor_Area_L_1'
p46
(dp47
sS'Supp_Motor_Area_L_3'
p48
(dp49
sS'Supp_Motor_Area_L_2'
p50
(dp51
sS'Supp_Motor_Area_R_9'
p52
(dp53
sS'Supp_Motor_Area_R_8'
p54
(dp55
sS'Supp_Motor_Area_R_7'
p56
(dp57
sS'Supp_Motor_Area_R_6'
p58
(dp59
sS'Supp_Motor_Area_R_5'
p60
(dp61
sS'Supp_Motor_Area_R_4'
p62
(dp63
sS'Supp_Motor_Area_R_3'
p64
(dp65
sS'Supp_Motor_Area_R_2'
p66
(dp67
sS'Supp_Motor_Area_R_1'
p68
(dp69
sS'Frontal_Sup_R_14'
p70
(dp71
sS'Frontal_Sup_R_15'
p72
(dp73
sS'Frontal_Sup_Orb_L_2'
p74
(dp75
sS'Frontal_Sup_Orb_L_3'
p76
(dp77
sS'Frontal_Sup_Orb_L_1'
p78
(dp79
sS'Precentral_L_10'
p80
(dp81
sS'Frontal_Sup_Orb_L_4'
p82
(dp83
sS'Frontal_Sup_Medial_L_7'
p84
(dp85
sS'Frontal_Sup_Medial_L_1'
p86
(dp87
sS'Frontal_Sup_Medial_L_2'
p88
(dp89
sS'Frontal_Sup_R_13'
p90
(dp91
sS'Frontal_Sup_Medial_L_8'
p92
(dp93
sS'Frontal_Sup_Medial_L_9'
p94
(dp95
sS'Precentral_L_1'
p96
(dp97
sS'Precentral_L_2'
p98
(dp99
sS'Precentral_L_3'
p100
(dp101
sS'Precentral_L_4'
p102
(dp103
sS'Precentral_L_5'
p104
(dp105
sS'Precentral_L_6'
p106
(dp107
sS'Precentral_L_7'
p108
(dp109
sS'Precentral_L_8'
p110
(dp111
sS'Precentral_L_9'
p112
(dp113
sS'Frontal_Inf_Orb_L_5'
p114
(dp115
sS'Frontal_Inf_Orb_L_4'
p116
(dp117
sS'Frontal_Inf_Orb_L_3'
p118
(dp119
sS'Frontal_Inf_Orb_L_2'
p120
(dp121
sS'Frontal_Inf_Orb_L_1'
p122
(dp123
sS'Frontal_Mid_R_8'
p124
(dp125
sS'Frontal_Mid_R_9'
p126
(dp127
sS'Frontal_Inf_Oper_R_3'
p128
(dp129
sS'Frontal_Inf_Oper_R_2'
p130
(dp131
sS'Frontal_Inf_Oper_R_1'
p132
(dp133
sS'Frontal_Inf_Oper_R_6'
p134
(dp135
sS'Frontal_Inf_Oper_R_5'
p136
(dp137
sS'Frontal_Inf_Oper_R_4'
p138
(dp139
sS'Frontal_Sup_Medial_L_4'
p140
(dp141
sS'Frontal_Sup_Medial_L_5'
p142
(dp143
sS'Frontal_Sup_R_16'
p144
(dp145
sS'Precentral_L_11'
p146
(dp147
sS'Frontal_Sup_R_10'
p148
(dp149
sS'Frontal_Sup_R_11'
p150
(dp151
sS'Precentral_L_14'
p152
(dp153
sS'Frontal_Sup_Medial_L_3'
p154
(dp155
sS'Cingulum_Ant_R_1'
p156
(dp157
sS'Cingulum_Ant_R_2'
p158
(dp159
sS'Cingulum_Ant_R_3'
p160
(dp161
sS'Cingulum_Ant_R_4'
p162
(dp163
sS'Cingulum_Ant_R_5'
p164
(dp165
sS'Frontal_Mid_R_1'
p166
(dp167
sS'Frontal_Mid_R_2'
p168
(dp169
sS'Frontal_Mid_R_3'
p170
(dp171
sS'Frontal_Mid_R_4'
p172
(dp173
sS'Frontal_Mid_R_5'
p174
(dp175
sS'Frontal_Mid_R_6'
p176
(dp177
sS'Frontal_Mid_R_7'
p178
(dp179
sS'Frontal_Sup_L_12'
p180
(dp181
sS'Frontal_Sup_L_13'
p182
(dp183
sS'Frontal_Sup_L_10'
p184
(dp185
sS'Frontal_Sup_L_11'
p186
(dp187
sS'Frontal_Sup_L_14'
p188
(dp189
sS'Frontal_Mid_L_2'
p190
(dp191
sS'Frontal_Mid_L_3'
p192
(dp193
sS'Frontal_Mid_L_1'
p194
(dp195
sS'Frontal_Mid_L_6'
p196
(dp197
sS'Frontal_Mid_L_7'
p198
(dp199
sS'Frontal_Mid_L_4'
p200
(dp201
sS'Frontal_Mid_L_5'
p202
(dp203
sS'Frontal_Mid_L_8'
p204
(dp205
sS'Frontal_Mid_L_9'
p206
(dp207
sS'Frontal_Sup_Medial_R_8'
p208
(dp209
sS'Frontal_Sup_Medial_R_9'
p210
(dp211
sS'Frontal_Sup_Medial_R_6'
p212
(dp213
sS'Frontal_Sup_Medial_R_7'
p214
(dp215
sS'Frontal_Sup_Medial_R_4'
p216
(dp217
sS'Frontal_Sup_Medial_R_5'
p218
(dp219
sS'Frontal_Sup_Medial_R_2'
p220
(dp221
sS'Frontal_Sup_Medial_R_3'
p222
(dp223
sS'Frontal_Sup_Medial_R_1'
p224
(dp225
sS'Rolandic_Oper_R_2'
p226
(dp227
sS'Rolandic_Oper_R_3'
p228
(dp229
sS'Rolandic_Oper_R_1'
p230
(dp231
sS'Rolandic_Oper_R_4'
p232
(dp233
sS'Rolandic_Oper_R_5'
p234
(dp235
sS'Frontal_Sup_R_12'
p236
(dp237
sS'Frontal_Mid_R_20'
p238
(dp239
sS'Precentral_L_13'
p240
(dp241
sS'Frontal_Sup_L_1'
p242
(dp243
sS'Frontal_Sup_L_2'
p244
(dp245
sS'Frontal_Sup_L_3'
p246
(dp247
sS'Frontal_Sup_L_4'
p248
(dp249
sS'Frontal_Sup_L_5'
p250
(dp251
sS'Frontal_Sup_L_6'
p252
(dp253
sS'Frontal_Sup_L_7'
p254
(dp255
sS'Frontal_Sup_L_8'
p256
(dp257
sS'Frontal_Sup_L_9'
p258
(dp259
sS'Frontal_Sup_R_2'
p260
(dp261
sS'Frontal_Sup_R_3'
p262
(dp263
sS'Frontal_Sup_R_1'
p264
(dp265
sS'Frontal_Sup_R_6'
p266
(dp267
sS'Frontal_Sup_R_7'
p268
(dp269
sS'Frontal_Sup_R_4'
p270
(dp271
sS'Frontal_Sup_R_5'
p272
(dp273
sS'Frontal_Sup_R_8'
p274
(dp275
sS'Frontal_Sup_R_9'
p276
(dp277
sS'Frontal_Med_Orb_L_1'
p278
(dp279
sS'Frontal_Med_Orb_L_2'
p280
(dp281
sS'Frontal_Med_Orb_L_3'
p282
(dp283
sS'Frontal_Med_Orb_R_2'
p284
(dp285
sS'Frontal_Med_Orb_R_3'
p286
(dp287
sS'Frontal_Med_Orb_R_1'
p288
(dp289
sS'Frontal_Sup_Orb_R_1'
p290
(dp291
sS'Frontal_Sup_Orb_R_2'
p292
(dp293
sS'Frontal_Sup_Orb_R_3'
p294
(dp295
sS'Frontal_Sup_Orb_R_4'
p296
(dp297
sS'Frontal_Sup_Medial_L_6'
p298
(dp299
sS'Precentral_R_10'
p300
(dp301
sS'Frontal_Inf_Tri_L_10'
p302
(dp303
sS'Frontal_Inf_Tri_R_3'
p304
(dp305
sS'Precentral_R_13'
p306
(dp307
sS'Frontal_Inf_Tri_R_5'
p308
(dp309
sS'Frontal_Mid_Orb_L_1'
p310
(dp311
sS'Precentral_L_12'
p312
(dp313
sS'Frontal_Mid_Orb_L_2'
p314
(dp315
sS'Frontal_Inf_Tri_R_6'
p316
(dp317
sS'Frontal_Inf_Tri_L_3'
p318
(dp319
sS'Frontal_Inf_Tri_L_2'
p320
(dp321
sS'Frontal_Inf_Tri_L_1'
p322
(dp323
sS'Frontal_Inf_Tri_L_7'
p324
(dp325
sS'Frontal_Inf_Tri_L_6'
p326
(dp327
sS'Frontal_Inf_Tri_L_5'
p328
(dp329
sS'Frontal_Inf_Tri_L_4'
p330
(dp331
sS'Frontal_Inf_Tri_L_9'
p332
(dp333
sS'Frontal_Inf_Tri_L_8'
p334
(dp335
sS'Frontal_Sup_Medial_L_12'
p336
(dp337
sS'Frontal_Sup_Medial_L_10'
p338
(dp339
sS'Frontal_Sup_Medial_L_11'
p340
(dp341
sS'Frontal_Inf_Orb_L_7'
p342
(dp343
sS'Frontal_Inf_Orb_L_6'
p344
(dp345
sS'Frontal_Mid_Orb_R_4'
p346
(dp347
sS'Frontal_Mid_Orb_R_2'
p348
(dp349
sS'Frontal_Mid_Orb_R_3'
p350
(dp351
sS'Frontal_Mid_Orb_R_1'
p352
(dp353
sS'Frontal_Inf_Tri_R_9'
p354
(dp355
sS'Frontal_Inf_Tri_R_8'
p356
(dp357
sS'Frontal_Mid_Orb_L_4'
p358
(dp359
sS'Precentral_R_11'
p360
(dp361
sS'Precentral_R_12'
p362
(dp363
sS'Frontal_Inf_Tri_R_2'
p364
(dp365
sS'Precentral_R_14'
p366
(dp367
sS'Frontal_Inf_Tri_R_4'
p368
(dp369
sS'Frontal_Inf_Tri_R_7'
p370
(dp371
sS'Frontal_Mid_Orb_L_3'
p372
(dp373
sS'Precentral_R_2'
p374
(dp375
sS'Precentral_R_3'
p376
(dp377
sS'Precentral_R_1'
p378
(dp379
sS'Precentral_R_6'
p380
(dp381
sS'Precentral_R_7'
p382
(dp383
sS'Precentral_R_4'
p384
(dp385
sS'Precentral_R_5'
p386
(dp387
sS'Precentral_R_8'
p388
(dp389
sS'Precentral_R_9'
p390
(dp391
sS'Cingulum_Ant_L_2'
p392
(dp393
sS'Cingulum_Ant_L_3'
p394
(dp395
sS'Cingulum_Ant_L_1'
p396
(dp397
sS'Cingulum_Ant_L_6'
p398
(dp399
sS'Cingulum_Ant_L_4'
p400
(dp401
sS'Cingulum_Ant_L_5'
p402
(dp403
sS'Frontal_Inf_Tri_R_1'
p404
(dp405
sS'Rolandic_Oper_L_3'
p406
(dp407
sS'Rolandic_Oper_L_4'
p408
(dp409
sS'Rectus_R_2'
p410
(dp411
sS'Rectus_R_3'
p412
(dp413
sS'Rectus_R_1'
p414
(dp415
sS'Frontal_Inf_Orb_R_5'
p416
(dp417
sS'Frontal_Inf_Orb_R_4'
p418
(dp419
sS'Frontal_Inf_Orb_R_7'
p420
(dp421
sS'Frontal_Inf_Orb_R_6'
p422
(dp423
sS'Frontal_Inf_Orb_R_1'
p424
(dp425
sS'Frontal_Inf_Orb_R_3'
p426
(dp427
sS'Frontal_Inf_Orb_R_2'
p428
(dp429
sS'Frontal_Inf_Oper_L_1'
p430
(dp431
sS'Frontal_Inf_Oper_L_3'
p432
(dp433
sS'Frontal_Inf_Oper_L_2'
p434
(dp435
sS'Frontal_Inf_Oper_L_4'
p436
(dp437
sS'Frontal_Mid_L_14'
p438
(dp439
sS'Frontal_Mid_L_15'
p440
(dp441
sS'Frontal_Mid_L_16'
p442
(dp443
sS'Frontal_Mid_L_17'
p444
(dp445
sS'Frontal_Mid_L_10'
p446
(dp447
sS'Frontal_Mid_L_11'
p448
(dp449
sS'Frontal_Mid_L_12'
p450
(dp451
sS'Frontal_Mid_L_13'
p452
(dp453
sS'Frontal_Mid_L_18'
p454
(dp455
sS'Frontal_Mid_L_19'
p456
(dp457
ssS'node_dict_factory'
p458
c__builtin__
dict
p459
sS'edge_attr_dict_factory'
p460
g459
sS'edge'
p461
(dp462
g242
(dp463
g8
(dp464
S'weight'
p465
F0.6244784785073833
ssg10
(dp466
g465
F1.2874289740809233
ssg248
(dp467
g465
F0.9149378865393951
ssg250
(dp468
g465
F0.7153831449544045
ssg252
(dp469
g465
F0.7315370674134335
ssg254
(dp470
g465
F0.6513747606188518
ssg256
(dp471
g465
F0.7820963391210823
ssg22
(dp472
g465
F0.6606310191770883
ssg184
(dp473
g465
F0.7539035034038254
ssg26
(dp474
g465
F0.9066292258164427
ssg30
(dp475
g465
F0.6437835794995679
ssg32
(dp476
g465
F0.6935654641911199
ssg34
(dp477
g465
F0.772994994566657
ssg244
(dp478
g465
F1.1474512841107083
ssg246
(dp479
g465
F0.8306441479154582
ssg200
(dp480
g465
F0.6103348357790617
ssg358
(dp481
g465
F0.9345311248315011
ssg360
(dp482
g465
F0.6703375784066636
ssg204
(dp483
g465
F0.8263631803314051
ssg306
(dp484
g465
F0.7127040874710725
ssg308
(dp485
g465
F0.9106722740364311
ssg310
(dp486
g465
F0.8774000485998813
ssg96
(dp487
g465
F0.7469055309315524
ssg98
(dp488
g465
F0.7116811875427681
ssg100
(dp489
g465
F0.6973079810104184
ssg366
(dp490
g465
F0.6479399880405348
ssg342
(dp491
g465
F0.8612506767389753
ssg344
(dp492
g465
F0.8610157599650416
ssg116
(dp493
g465
F0.7600238948419284
ssg368
(dp494
g465
F0.8342047768122156
ssg124
(dp495
g465
F0.6326372508241549
ssg258
(dp496
g465
F0.8271731361305634
ssg448
(dp497
g465
F0.685388680727654
ssg238
(dp498
g465
F1.1347001986238412
ssg390
(dp499
g465
F0.8071038901355889
ssg430
(dp500
g465
F0.7331463155673146
ssg434
(dp501
g465
F0.9180004705303867
ssg298
(dp502
g465
F0.7464095231306379
ssg446
(dp503
g465
F0.6370311966053708
ssg86
(dp504
g465
F0.6098759816684182
ssg162
(dp505
g465
F0.7483686124795303
sssg8
(dp506
g126
(dp507
g465
F0.6207619037435486
ssg242
g464
sg10
(dp508
g465
F0.6696542822583585
ssg250
(dp509
g465
F0.8807483300820409
ssg252
(dp510
g465
F0.9965196037381423
ssg254
(dp511
g465
F1.0474417602522659
ssg56
(dp512
g465
F0.659502806997049
ssg22
(dp513
g465
F0.9111846629499566
ssg184
(dp514
g465
F0.8753721280068207
ssg26
(dp515
g465
F0.7549579088514548
ssg28
(dp516
g465
F0.6108213021932991
ssg30
(dp517
g465
F0.847327603780365
ssg48
(dp518
g465
F0.6175377429575619
ssg34
(dp519
g465
F1.0977968414586652
ssg300
(dp520
g465
F0.6184779314408968
ssg264
(dp521
g465
F1.3262217291088978
ssg266
(dp522
g465
F0.6929526002200584
ssg272
(dp523
g465
F0.6799147727229267
ssg358
(dp524
g465
F0.6293772271932435
ssg40
(dp525
g465
F0.6598588407870879
ssg362
(dp526
g465
F0.9766612813273801
ssg306
(dp527
g465
F0.8389266844797909
ssg366
(dp528
g465
F0.9684486177398948
ssg96
(dp529
g465
F0.884830347809399
ssg98
(dp530
g465
F0.7865987053205254
ssg100
(dp531
g465
F0.7014082975939819
ssg342
(dp532
g465
F0.8578571427821394
ssg344
(dp533
g465
F0.8537765025490786
ssg116
(dp534
g465
F0.7452489513650937
ssg426
(dp535
g465
F0.6114771225124862
ssg124
(dp536
g465
F0.9616359696458752
ssg258
(dp537
g465
F0.6810114546756684
ssg374
(dp538
g465
F0.6423923941535
ssg378
(dp539
g465
F0.6799730561873546
ssg382
(dp540
g465
F0.6464903824319913
ssg238
(dp541
g465
F0.6110444293598752
ssg390
(dp542
g465
F0.7086264408249477
ssg66
(dp543
g465
F0.6568811547566845
ssg32
(dp544
g465
F0.8257064655976712
ssg432
(dp545
g465
F0.6855478981156634
ssg434
(dp546
g465
F0.6325360227111161
ssg298
(dp547
g465
F0.8356749883390883
ssg288
(dp548
g465
F0.6209029941634194
ssg162
(dp549
g465
F0.8275411964230343
sssg10
(dp550
g242
g466
sg8
g508
sg246
(dp551
g465
F0.9633433698685431
ssg248
(dp552
g465
F0.9290634796216416
ssg250
(dp553
g465
F0.6923110726574163
ssg252
(dp554
g465
F0.7456347024084772
ssg254
(dp555
g465
F0.692329807485387
ssg256
(dp556
g465
F0.7480132694967878
ssg22
(dp557
g465
F0.6581119740067726
ssg184
(dp558
g465
F0.7353617417728104
ssg26
(dp559
g465
F0.8809228830138073
ssg30
(dp560
g465
F0.6646948009129606
ssg32
(dp561
g465
F0.6515082695621394
ssg34
(dp562
g465
F0.7820261272391151
ssg244
(dp563
g465
F0.9792002042742015
ssg40
(dp564
g465
F0.6224640910046313
ssg200
(dp565
g465
F0.6247674616648619
ssg358
(dp566
g465
F1.0867621138379309
ssg360
(dp567
g465
F0.7720062271621692
ssg304
(dp568
g465
F0.6346463406858874
ssg306
(dp569
g465
F0.72613874010932
ssg308
(dp570
g465
F0.9813517591704497
ssg310
(dp571
g465
F1.0145181862704453
ssg96
(dp572
g465
F0.7568527858235196
ssg98
(dp573
g465
F0.7720696202049969
ssg364
(dp574
g465
F0.6454907607325205
ssg366
(dp575
g465
F0.652024794258439
ssg342
(dp576
g465
F0.808160695786034
ssg344
(dp577
g465
F0.8866407866075904
ssg116
(dp578
g465
F0.7170588878208144
ssg368
(dp579
g465
F0.9041468317190324
ssg56
(dp580
g465
F0.613993647047076
ssg258
(dp581
g465
F0.9268311454651036
ssg448
(dp582
g465
F0.7273900269989233
ssg186
(dp583
g465
F0.6013479772248043
ssg238
(dp584
g465
F1.169099673403163
ssg390
(dp585
g465
F0.7698566814863012
ssg100
(dp586
g465
F0.6672236110740238
ssg188
(dp587
g465
F0.628520046577751
ssg124
(dp588
g465
F0.6975638213442509
ssg430
(dp589
g465
F0.7925579094923523
ssg432
(dp590
g465
F0.6148629364242422
ssg434
(dp591
g465
F1.13968337973317
ssg298
(dp592
g465
F0.7218332531942165
ssg446
(dp593
g465
F0.7377084421865497
ssg86
(dp594
g465
F0.6666753846052876
ssg162
(dp595
g465
F0.7659488741228847
ssg204
(dp596
g465
F0.8327783140530812
sssg248
(dp597
g242
g467
sg244
(dp598
g465
F0.7326104004858764
ssg246
(dp599
g465
F0.6041110820057838
ssg250
(dp600
g465
F0.626033113624037
ssg252
(dp601
g465
F0.638227935676558
ssg256
(dp602
g465
F1.006256179673828
ssg22
(dp603
g465
F0.635430467969754
ssg184
(dp604
g465
F0.6473810003764568
ssg26
(dp605
g465
F0.8698279762600915
ssg30
(dp606
g465
F0.6289138293842015
ssg34
(dp607
g465
F0.6917992020836424
ssg10
g552
sg358
(dp608
g465
F0.7442608028450372
ssg204
(dp609
g465
F0.6686655856978417
ssg306
(dp610
g465
F0.657311394895013
ssg308
(dp611
g465
F0.7325668627425469
ssg310
(dp612
g465
F0.7449570293143862
ssg96
(dp613
g465
F0.6134419062497541
ssg98
(dp614
g465
F0.6003802689319664
ssg366
(dp615
g465
F0.62040248446045
ssg342
(dp616
g465
F0.6751327999452991
ssg344
(dp617
g465
F0.6323242491070764
ssg116
(dp618
g465
F0.6856036532771402
ssg368
(dp619
g465
F0.629588767415458
ssg56
(dp620
g465
F0.6170735398981172
ssg258
(dp621
g465
F0.9077892103787341
ssg238
(dp622
g465
F0.771121168536335
ssg390
(dp623
g465
F0.8248084684052299
ssg434
(dp624
g465
F0.7577031419976353
ssg298
(dp625
g465
F0.6066671010721246
ssg448
(dp626
g465
F0.6422091552017216
sssg250
(dp627
g126
(dp628
g465
F0.6161371597314131
ssg242
g468
sg8
g509
sg10
g553
sg248
g600
sg252
(dp629
g465
F1.2216337502882086
ssg254
(dp630
g465
F0.9965330065809712
ssg56
(dp631
g465
F0.9552471201268524
ssg22
(dp632
g465
F1.4774581316642108
ssg184
(dp633
g465
F1.2335044140951965
ssg26
(dp634
g465
F0.9328001334046511
ssg30
(dp635
g465
F1.1546660806515237
ssg32
(dp636
g465
F1.1446267968048862
ssg34
(dp637
g465
F1.0245054518993382
ssg264
(dp638
g465
F0.7492754114115252
ssg358
(dp639
g465
F0.7083043101121738
ssg172
(dp640
g465
F0.632844323897198
ssg204
(dp641
g465
F0.6690316828963325
ssg306
(dp642
g465
F0.7610237186244073
ssg308
(dp643
g465
F0.6627889073641732
ssg310
(dp644
g465
F0.6324977223388991
ssg96
(dp645
g465
F1.0730034788118483
ssg98
(dp646
g465
F0.7163930784943531
ssg100
(dp647
g465
F0.8315308120034092
ssg366
(dp648
g465
F1.143891209676803
ssg342
(dp649
g465
F0.9495189495527533
ssg418
(dp650
g465
F0.668750882895779
ssg116
(dp651
g465
F0.9488363206554711
ssg124
(dp652
g465
F0.7820278233898064
ssg40
(dp653
g465
F0.7113218700885854
ssg374
(dp654
g465
F0.6322566996915769
ssg376
(dp655
g465
F0.6663596849457116
ssg378
(dp656
g465
F0.651013213715382
ssg384
(dp657
g465
F0.6631350394656873
ssg238
(dp658
g465
F0.6626048894257062
ssg390
(dp659
g465
F0.6436450593536923
ssg430
(dp660
g465
F0.6253947317980345
ssg434
(dp661
g465
F0.7227775091575763
ssg258
(dp662
g465
F0.6412701740263378
ssg362
(dp663
g465
F0.8045931684272396
ssg298
(dp664
g465
F0.9955704260842942
ssg344
(dp665
g465
F0.731797581841608
ssg162
(dp666
g465
F0.7289009770907477
sssg252
(dp667
g126
(dp668
g465
F0.6973143126895187
ssg242
g469
sg244
(dp669
g465
F0.6418426681772623
ssg10
g554
sg248
g601
sg250
g629
sg254
(dp670
g465
F1.2972251164605484
ssg20
(dp671
g465
F0.6185322988724673
ssg258
(dp672
g465
F0.7184594337375193
ssg184
(dp673
g465
F1.2747251342335264
ssg26
(dp674
g465
F0.8779389317533124
ssg8
g510
sg32
(dp675
g465
F0.9610875302658001
ssg34
(dp676
g465
F0.9777368567610627
ssg66
(dp677
g465
F0.694094241110807
ssg264
(dp678
g465
F0.9586361419587613
ssg272
(dp679
g465
F0.747387438138175
ssg358
(dp680
g465
F0.6951619074878094
ssg172
(dp681
g465
F0.7154896507812695
ssg204
(dp682
g465
F0.688614612408214
ssg306
(dp683
g465
F0.769771079407368
ssg308
(dp684
g465
F0.632176835905315
ssg310
(dp685
g465
F0.6205954784792314
ssg96
(dp686
g465
F1.1207797122360004
ssg98
(dp687
g465
F0.7850945343622165
ssg100
(dp688
g465
F1.0084461431760883
ssg366
(dp689
g465
F0.9480331125775576
ssg212
(dp690
g465
F0.6510790347807824
ssg418
(dp691
g465
F0.6631027227962117
ssg420
(dp692
g465
F0.6561469740359962
ssg116
(dp693
g465
F0.8549550379966334
ssg222
(dp694
g465
F0.6520696735432604
ssg246
(dp695
g465
F0.6068381393436816
ssg56
(dp696
g465
F0.9008924983225509
ssg40
(dp697
g465
F0.7382632027832523
ssg318
(dp698
g465
F0.6038814118549126
ssg376
(dp699
g465
F0.690503523263466
ssg378
(dp700
g465
F0.7732271270003639
ssg374
(dp701
g465
F0.7190386419178949
ssg384
(dp702
g465
F0.7179210278267223
ssg238
(dp703
g465
F0.7025756634017365
ssg390
(dp704
g465
F0.6799532342301653
ssg30
(dp705
g465
F0.9214947601957978
ssg22
(dp706
g465
F1.0529374064514683
ssg48
(dp707
g465
F0.6695526233960137
ssg124
(dp708
g465
F0.9359616642411468
ssg430
(dp709
g465
F0.6265515892477111
ssg432
(dp710
g465
F0.6013403580803519
ssg434
(dp711
g465
F0.7425533641881178
ssg334
(dp712
g465
F0.6359524433207648
ssg362
(dp713
g465
F0.8545248321911667
ssg342
(dp714
g465
F0.9357696486978924
ssg298
(dp715
g465
F1.09479580326314
ssg288
(dp716
g465
F0.6810175302004787
ssg344
(dp717
g465
F0.828803210785037
ssg162
(dp718
g465
F0.7812013403385637
sssg254
(dp719
g126
(dp720
g465
F0.6547190295197928
ssg242
g470
sg8
g511
sg10
g555
sg172
(dp721
g465
F0.6445234095400919
ssg250
g630
sg252
g670
sg56
(dp722
g465
F0.6832277600106927
ssg258
(dp723
g465
F0.7523058161686405
ssg184
(dp724
g465
F0.9758019266250295
ssg26
(dp725
g465
F0.775792050384405
ssg30
(dp726
g465
F1.1045802255981234
ssg32
(dp727
g465
F0.7703013967008829
ssg34
(dp728
g465
F0.9796715543446988
ssg264
(dp729
g465
F1.006907113233562
ssg272
(dp730
g465
F0.6676261759316089
ssg358
(dp731
g465
F0.6122633992813387
ssg204
(dp732
g465
F0.6248710959744509
ssg306
(dp733
g465
F0.7005476314845376
ssg366
(dp734
g465
F0.988113142260586
ssg362
(dp735
g465
F0.7787090251200042
ssg96
(dp736
g465
F0.9116990531502258
ssg98
(dp737
g465
F0.963221117558422
ssg100
(dp738
g465
F0.7565224955730493
ssg328
(dp739
g465
F0.6191207361268771
ssg212
(dp740
g465
F0.6294866494019089
ssg344
(dp741
g465
F0.7041069008993707
ssg420
(dp742
g465
F0.6281475136849205
ssg116
(dp743
g465
F0.7527241020957499
ssg222
(dp744
g465
F0.615889559008981
ssg124
(dp745
g465
F1.4041702579593505
ssg40
(dp746
g465
F0.6956787780720499
ssg374
(dp747
g465
F0.6628940800827573
ssg376
(dp748
g465
F0.6252101284104525
ssg378
(dp749
g465
F0.7093100273648991
ssg384
(dp750
g465
F0.619977718027868
ssg238
(dp751
g465
F0.6106596974284974
ssg390
(dp752
g465
F0.6578871927369376
ssg66
(dp753
g465
F0.7182441636276917
ssg22
(dp754
g465
F0.9924180244548149
ssg48
(dp755
g465
F0.6375752759952265
ssg434
(dp756
g465
F0.6726164059544231
ssg334
(dp757
g465
F0.6269442641042964
ssg342
(dp758
g465
F0.754882132094405
ssg298
(dp759
g465
F0.8935203936056565
ssg288
(dp760
g465
F0.7158500814583028
ssg162
(dp761
g465
F0.652050465431973
sssg256
(dp762
g242
g471
sg10
g556
sg248
g602
sg258
(dp763
g465
F0.9484608472830397
ssg390
(dp764
g465
F0.9602573335719383
ssg26
(dp765
g465
F0.7747921569234052
ssg34
(dp766
g465
F0.6118383248155282
ssg434
(dp767
g465
F0.6426680827462766
ssg358
(dp768
g465
F0.611503821857804
ssg310
(dp769
g465
F0.6051206125152794
sssg22
(dp770
g126
(dp771
g465
F0.6165109266747538
ssg242
g472
sg8
g513
sg10
g557
sg248
g603
sg250
g632
sg252
g706
sg254
g754
sg20
(dp772
g465
F0.6058552902968452
ssg258
(dp773
g465
F0.6188296010102448
ssg184
(dp774
g465
F1.0106601603047187
ssg26
(dp775
g465
F0.9204031359201917
ssg30
(dp776
g465
F1.2819910636509948
ssg32
(dp777
g465
F1.1995783007299323
ssg34
(dp778
g465
F1.1698946894298936
ssg264
(dp779
g465
F0.7535959130778017
ssg358
(dp780
g465
F0.6716631422356057
ssg172
(dp781
g465
F0.6162808258531699
ssg204
(dp782
g465
F0.6180160195512384
ssg306
(dp783
g465
F0.7543272222144005
ssg308
(dp784
g465
F0.6244696775250996
ssg310
(dp785
g465
F0.6004944353653597
ssg96
(dp786
g465
F0.954009086685972
ssg98
(dp787
g465
F0.7226758942126982
ssg100
(dp788
g465
F0.7517346042196364
ssg366
(dp789
g465
F1.5105791587241795
ssg342
(dp790
g465
F0.9005003162476163
ssg418
(dp791
g465
F0.7123182440265695
ssg116
(dp792
g465
F0.9573882516985571
ssg56
(dp793
g465
F0.8761158318330728
ssg40
(dp794
g465
F0.7051301964577773
ssg374
(dp795
g465
F0.6076090676670332
ssg376
(dp796
g465
F0.6432198617124458
ssg378
(dp797
g465
F0.6360927399089964
ssg384
(dp798
g465
F0.621315522603374
ssg238
(dp799
g465
F0.616123320383493
ssg390
(dp800
g465
F0.6453779209402027
ssg66
(dp801
g465
F0.6015012099845941
ssg124
(dp802
g465
F0.7926017646934795
ssg434
(dp803
g465
F0.6935390040728502
ssg362
(dp804
g465
F0.8443476574301481
ssg298
(dp805
g465
F0.8698944767179037
ssg344
(dp806
g465
F0.6906822745808946
ssg162
(dp807
g465
F0.6992703826378097
sssg24
(dp808
g38
(dp809
g465
F1.051380791831255
ssg380
(dp810
g465
F1.2584035951621573
ssg270
(dp811
g465
F0.6087542261066793
ssg52
(dp812
g465
F0.7717936434147686
ssg416
(dp813
g465
F0.6157388071682318
ssg58
(dp814
g465
F0.9425983039759399
ssg152
(dp815
g465
F0.8350410120643693
ssg352
(dp816
g465
F0.6262638777650997
ssg240
(dp817
g465
F0.7231205029765566
ssg146
(dp818
g465
F0.9835642600623804
ssg148
(dp819
g465
F0.6534850916372783
ssg150
(dp820
g465
F0.6008211606349282
ssg236
(dp821
g465
F0.7036582119873073
ssg234
(dp822
g465
F0.6906178101093432
ssg408
(dp823
g465
F0.6137584019725232
sssg26
(dp824
g126
(dp825
g465
F0.7135149699769175
ssg242
g474
sg8
g515
sg10
g559
sg248
g605
sg250
g634
sg252
g674
sg254
g725
sg20
(dp826
g465
F0.732712839899713
ssg22
g775
sg184
(dp827
g465
F0.9281403653375113
ssg186
(dp828
g465
F0.6102113925353926
ssg28
(dp829
g465
F0.7912911979330458
ssg30
(dp830
g465
F0.8620021261799223
ssg32
(dp831
g465
F0.8934834345392649
ssg34
(dp832
g465
F1.1829526836847732
ssg244
(dp833
g465
F0.7330826293385043
ssg246
(dp834
g465
F0.6596239732569957
ssg40
(dp835
g465
F0.7521535602398176
ssg200
(dp836
g465
F0.6461311076303311
ssg202
(dp837
g465
F0.606850605615496
ssg358
(dp838
g465
F0.8058785859513534
ssg172
(dp839
g465
F0.7200223163919225
ssg362
(dp840
g465
F0.6104159817148797
ssg306
(dp841
g465
F1.2505869658493565
ssg308
(dp842
g465
F0.7361342379263195
ssg310
(dp843
g465
F0.7570172292322123
ssg174
(dp844
g465
F0.6524023345848596
ssg96
(dp845
g465
F0.8434894205075958
ssg98
(dp846
g465
F0.7014927293385226
ssg100
(dp847
g465
F0.7579376171049051
ssg328
(dp848
g465
F0.6299423210328676
ssg366
(dp849
g465
F0.9417875349394281
ssg212
(dp850
g465
F0.6280152576286163
ssg418
(dp851
g465
F0.6258298522939315
ssg420
(dp852
g465
F0.6866650514234224
ssg116
(dp853
g465
F0.9049127408874559
ssg368
(dp854
g465
F0.6085660175479427
ssg256
g765
sg84
(dp855
g465
F0.6356777998932901
ssg258
(dp856
g465
F0.8295173912584728
ssg280
(dp857
g465
F0.6072652074014918
ssg448
(dp858
g465
F0.6127765541012884
ssg318
(dp859
g465
F0.6766196212032645
ssg376
(dp860
g465
F0.7111435018442323
ssg378
(dp861
g465
F0.6886777109262419
ssg374
(dp862
g465
F0.7175312346028256
ssg382
(dp863
g465
F0.7844496142084045
ssg384
(dp864
g465
F0.7431823253454823
ssg238
(dp865
g465
F0.8008267106120528
ssg390
(dp866
g465
F0.9346914764419997
ssg336
(dp867
g465
F0.687156225375516
ssg338
(dp868
g465
F0.7207082090893983
ssg66
(dp869
g465
F0.6312377917904788
ssg48
(dp870
g465
F0.6771635158947433
ssg124
(dp871
g465
F0.7054281712623962
ssg340
(dp872
g465
F0.6620711013741802
ssg430
(dp873
g465
F0.6979431038209566
ssg432
(dp874
g465
F0.6843373364128816
ssg434
(dp875
g465
F0.8319721755603489
ssg334
(dp876
g465
F0.6852681045239691
ssg342
(dp877
g465
F0.9521866699878598
ssg298
(dp878
g465
F0.8062725935089274
ssg264
(dp879
g465
F0.6184095202869065
ssg86
(dp880
g465
F0.6346502807126583
ssg344
(dp881
g465
F0.8114290066471291
ssg56
(dp882
g465
F0.8075642697609747
ssg162
(dp883
g465
F0.8554402898376173
ssg94
(dp884
g465
F0.6282959957434534
ssg204
(dp885
g465
F0.7573562574359181
sssg28
(dp886
g8
g516
sg16
(dp887
g465
F0.6092063897777705
ssg126
(dp888
g465
F0.622862063578083
ssg26
g829
sg350
(dp889
g465
F0.6724496689381355
ssg48
(dp890
g465
F0.6374760783985849
ssg34
(dp891
g465
F0.6516386013901533
ssg356
(dp892
g465
F0.6600008631903668
ssg300
(dp893
g465
F0.712499112414225
ssg306
(dp894
g465
F1.0750744589948422
ssg342
(dp895
g465
F0.6150125629041222
ssg420
(dp896
g465
F0.6014963837158246
ssg280
(dp897
g465
F0.6855681337928073
ssg382
(dp898
g465
F0.9258946028606616
ssg388
(dp899
g465
F0.9853314488414726
ssg334
(dp900
g465
F0.640744765058902
ssg188
(dp901
g465
F0.641419140592671
ssg432
(dp902
g465
F0.8554407369198306
ssg434
(dp903
g465
F0.6019972427764988
ssg288
(dp904
g465
F0.6018944142288544
ssg86
(dp905
g465
F0.7315803978049095
ssg162
(dp906
g465
F0.7297448225953107
sssg30
(dp907
g242
g475
sg8
g517
sg10
g560
sg248
g606
sg250
g635
sg252
g705
sg254
g726
sg56
(dp908
g465
F0.7071564197165771
ssg22
g776
sg184
(dp909
g465
F0.8855629886245943
ssg26
g830
sg32
(dp910
g465
F0.8678445348189787
ssg34
(dp911
g465
F1.0896583127769983
ssg264
(dp912
g465
F0.6931906789328693
ssg358
(dp913
g465
F0.6236391769986475
ssg204
(dp914
g465
F0.6317914405321858
ssg306
(dp915
g465
F0.6870652033147793
ssg366
(dp916
g465
F1.307869122386008
ssg362
(dp917
g465
F0.6796361137700123
ssg96
(dp918
g465
F0.827341703453068
ssg98
(dp919
g465
F0.8220080111862081
ssg100
(dp920
g465
F0.6599817715459807
ssg342
(dp921
g465
F0.7423325485619374
ssg344
(dp922
g465
F0.657700798355648
ssg116
(dp923
g465
F0.819621937642724
ssg124
(dp924
g465
F1.060329538402591
ssg40
(dp925
g465
F0.6497459267322324
ssg376
(dp926
g465
F0.608326135106663
ssg384
(dp927
g465
F0.6039889383664715
ssg238
(dp928
g465
F0.6181351409116493
ssg390
(dp929
g465
F0.6385073352726826
ssg434
(dp930
g465
F0.6582464331115014
ssg258
(dp931
g465
F0.6750859932904847
ssg298
(dp932
g465
F0.8167040398372036
sssg32
(dp933
g242
g476
sg8
g544
sg10
g561
sg250
g636
sg252
g675
sg254
g727
sg56
(dp934
g465
F0.8894134788057934
ssg22
g777
sg184
(dp935
g465
F1.0491985207820622
ssg26
g831
sg30
g910
sg34
(dp936
g465
F0.9810874251787889
ssg264
(dp937
g465
F0.7394791321611399
ssg272
(dp938
g465
F0.628692143197847
ssg358
(dp939
g465
F0.6382084973910133
ssg204
(dp940
g465
F0.6236581822340358
ssg306
(dp941
g465
F0.7361525618574802
ssg308
(dp942
g465
F0.6315482027730849
ssg362
(dp943
g465
F0.8953742155360386
ssg96
(dp944
g465
F0.9581324899274656
ssg98
(dp945
g465
F0.6182759601753772
ssg100
(dp946
g465
F0.7722347758959935
ssg366
(dp947
g465
F1.0361298587936647
ssg342
(dp948
g465
F0.9726721148061868
ssg418
(dp949
g465
F0.7048288856864117
ssg116
(dp950
g465
F0.922490034784443
ssg124
(dp951
g465
F0.6473884037378044
ssg40
(dp952
g465
F0.6434846348584905
ssg376
(dp953
g465
F0.6080160683355723
ssg384
(dp954
g465
F0.6040588410273708
ssg238
(dp955
g465
F0.6284409605248404
ssg390
(dp956
g465
F0.6032623143859459
ssg434
(dp957
g465
F0.6726578598343355
ssg298
(dp958
g465
F0.9190834468039834
ssg344
(dp959
g465
F0.7192130566383914
ssg162
(dp960
g465
F0.7444637937293955
sssg34
(dp961
g126
(dp962
g465
F0.6818357842968341
ssg242
g477
sg8
g519
sg10
g562
sg248
g607
sg250
g637
sg252
g676
sg254
g728
sg20
(dp963
g465
F0.6908000882007741
ssg22
g778
sg184
(dp964
g465
F0.9926868860338364
ssg26
g832
sg28
g891
sg30
g911
sg32
g936
sg244
(dp965
g465
F0.6795355172520511
ssg264
(dp966
g465
F0.8540360806668431
ssg40
(dp967
g465
F0.7466413075167031
ssg200
(dp968
g465
F0.6168181201674351
ssg358
(dp969
g465
F0.719354845425536
ssg172
(dp970
g465
F0.690721208367212
ssg204
(dp971
g465
F0.655722509832105
ssg306
(dp972
g465
F1.0429596622465311
ssg308
(dp973
g465
F0.6502657117128743
ssg310
(dp974
g465
F0.6701587693456633
ssg174
(dp975
g465
F0.624227302604808
ssg96
(dp976
g465
F0.8966113836361217
ssg98
(dp977
g465
F0.7913024320501834
ssg100
(dp978
g465
F0.707298952329151
ssg328
(dp979
g465
F0.6064485758864934
ssg366
(dp980
g465
F1.3771824285005139
ssg212
(dp981
g465
F0.6284282046325413
ssg418
(dp982
g465
F0.6617103354993866
ssg420
(dp983
g465
F0.6414662764012931
ssg116
(dp984
g465
F0.9419940552125433
ssg256
g766
sg258
(dp985
g465
F0.7526629243785297
ssg318
(dp986
g465
F0.6153234592794736
ssg376
(dp987
g465
F0.6908504447645618
ssg378
(dp988
g465
F0.6848740785251052
ssg374
(dp989
g465
F0.6831799868843232
ssg382
(dp990
g465
F0.6634063354378275
ssg384
(dp991
g465
F0.6921626906315974
ssg238
(dp992
g465
F0.7335170201834769
ssg390
(dp993
g465
F0.8158810811526683
ssg334
(dp994
g465
F0.6299712161227455
ssg336
(dp995
g465
F0.6355541594613142
ssg338
(dp996
g465
F0.6723881928762815
ssg66
(dp997
g465
F0.623931910806301
ssg48
(dp998
g465
F0.6583481407439706
ssg124
(dp999
g465
F0.8393555418004796
ssg340
(dp1000
g465
F0.6141348995792201
ssg430
(dp1001
g465
F0.6375647602351397
ssg432
(dp1002
g465
F0.6304355094711794
ssg434
(dp1003
g465
F0.7368218271665518
ssg362
(dp1004
g465
F0.8040814304001693
ssg342
(dp1005
g465
F0.9600581951441202
ssg298
(dp1006
g465
F0.8532028873758188
ssg344
(dp1007
g465
F0.8516370162703979
ssg56
(dp1008
g465
F0.7513836560954431
ssg162
(dp1009
g465
F0.8344786480363405
ssg94
(dp1010
g465
F0.601696880983455
sssg260
(dp1011
g296
(dp1012
g465
F0.6468165429822114
ssg14
(dp1013
g465
F0.718993466205005
ssg16
(dp1014
g465
F0.6351621755604411
ssg18
(dp1015
g465
F0.6204440750332045
ssg46
(dp1016
g465
F0.608752276728374
ssg48
(dp1017
g465
F0.6253534004285803
ssg352
(dp1018
g465
F0.775807401482401
ssg190
(dp1019
g465
F0.7688302868758135
ssg262
(dp1020
g465
F0.6960025286456069
ssg194
(dp1021
g465
F0.7985804664154221
ssg270
(dp1022
g465
F0.7886172792447036
ssg274
(dp1023
g465
F0.9393218864692656
ssg276
(dp1024
g465
F0.6679775156702021
ssg316
(dp1025
g465
F0.6100621239409778
ssg412
(dp1026
g465
F0.734355128330967
ssg286
(dp1027
g465
F0.7930765310013764
ssg416
(dp1028
g465
F0.6416046876223822
ssg78
(dp1029
g465
F0.6212996440608186
ssg130
(dp1030
g465
F0.6034245012110575
ssg322
(dp1031
g465
F0.68791505329605
ssg334
(dp1032
g465
F0.6432032658790918
ssg54
(dp1033
g465
F0.8091027616296499
ssg396
(dp1034
g465
F0.7442411704604359
ssg108
(dp1035
g465
F0.6638848082950122
ssg72
(dp1036
g465
F0.6211925526906152
ssg148
(dp1037
g465
F0.7051174028736712
ssg90
(dp1038
g465
F0.7631857759371594
ssg406
(dp1039
g465
F0.6975984761906593
sssg262
(dp1040
g108
(dp1041
g465
F0.8956604874035696
ssg296
(dp1042
g465
F0.650364489431167
ssg14
(dp1043
g465
F0.6421669887464896
ssg16
(dp1044
g465
F0.6154795716602294
ssg18
(dp1045
g465
F0.6578142363922415
ssg38
(dp1046
g465
F0.7267032075769305
ssg352
(dp1047
g465
F1.18943927904088
ssg260
g1020
sg194
(dp1048
g465
F0.6278127962266743
ssg270
(dp1049
g465
F0.7752177320441528
ssg372
(dp1050
g465
F0.6405351991347772
ssg52
(dp1051
g465
F0.6084994962232341
ssg106
(dp1052
g465
F0.687026335498261
ssg72
(dp1053
g465
F0.7216342998070142
ssg416
(dp1054
g465
F0.6449914694368923
ssg226
(dp1055
g465
F0.6347964144986394
ssg234
(dp1056
g465
F0.6551049064075891
ssg130
(dp1057
g465
F0.6096527483170817
ssg236
(dp1058
g465
F0.8619859011529689
ssg392
(dp1059
g465
F0.6138661552392561
ssg394
(dp1060
g465
F0.6130265924237152
ssg396
(dp1061
g465
F0.6032028173779891
ssg398
(dp1062
g465
F0.6146941130553482
ssg286
(dp1063
g465
F0.6014516347405441
ssg312
(dp1064
g465
F0.6242938335784685
ssg240
(dp1065
g465
F0.6223708666378083
ssg148
(dp1066
g465
F0.6903256065299183
ssg152
(dp1067
g465
F0.6056551394755545
ssg158
(dp1068
g465
F0.6351220153419421
ssg456
(dp1069
g465
F0.6327948315447328
sssg246
(dp1070
g242
g479
sg244
(dp1071
g465
F0.8840369297428607
ssg10
g551
sg248
g599
sg252
g695
sg166
(dp1072
g465
F0.611212366735235
ssg258
(dp1073
g465
F0.7035838562924219
ssg346
(dp1074
g465
F0.7542013113436037
ssg26
g834
sg348
(dp1075
g465
F0.6229151864429977
ssg358
(dp1076
g465
F0.7841314941697378
ssg404
(dp1077
g465
F0.816453023709249
ssg360
(dp1078
g465
F0.8270534338350095
ssg204
(dp1079
g465
F0.7181562546749239
ssg306
(dp1080
g465
F0.655712028870196
ssg308
(dp1081
g465
F0.7783180721568984
ssg304
(dp1082
g465
F0.6360303237002642
ssg96
(dp1083
g465
F0.6044402726495709
ssg98
(dp1084
g465
F0.6261151981099812
ssg364
(dp1085
g465
F0.9152353110892102
ssg342
(dp1086
g465
F0.7072925424544534
ssg344
(dp1087
g465
F0.8932357616187495
ssg368
(dp1088
g465
F0.9785319661306867
ssg426
(dp1089
g465
F0.6533566756368544
ssg310
(dp1090
g465
F0.749053305915911
ssg238
(dp1091
g465
F1.0142660791494176
ssg432
(dp1092
g465
F0.6542711745628595
ssg434
(dp1093
g465
F0.7515855583093414
ssg438
(dp1094
g465
F0.6235522144621478
ssg298
(dp1095
g465
F0.6222275224796439
ssg446
(dp1096
g465
F0.7491613216383257
ssg448
(dp1097
g465
F0.7903177723800678
ssg452
(dp1098
g465
F0.6859972177706878
ssg162
(dp1099
g465
F0.8073403573074343
sssg266
(dp1100
g8
g522
sg432
(dp1101
g465
F0.618017855150828
ssg264
(dp1102
g465
F0.8979002445919905
ssg160
(dp1103
g465
F0.6342442515010357
ssg162
(dp1104
g465
F0.6357506943988382
ssg372
(dp1105
g465
F0.7185756987376862
sssg268
(dp1106
g322
(dp1107
g465
F0.6413770681620291
ssg396
(dp1108
g465
F0.6306560894717647
ssg296
(dp1109
g465
F0.9490603415467959
ssg412
(dp1110
g465
F0.610546561891195
ssg16
(dp1111
g465
F0.6418501653612568
ssg54
(dp1112
g465
F0.6219657425594662
ssg414
(dp1113
g465
F0.658690388442104
ssg46
(dp1114
g465
F0.6504382536469265
ssg352
(dp1115
g465
F0.60371273705761
ssg70
(dp1116
g465
F0.6049835524628331
ssg286
(dp1117
g465
F0.73424481835667
ssg144
(dp1118
g465
F0.7885825562894302
ssg194
(dp1119
g465
F0.7035356843337878
ssg150
(dp1120
g465
F0.6276228149858255
ssg270
(dp1121
g465
F0.6687987324683223
ssg398
(dp1122
g465
F0.6782425222921872
ssg274
(dp1123
g465
F0.7602879161684831
ssg276
(dp1124
g465
F0.6493460597935733
ssg372
(dp1125
g465
F0.8801840223597261
sssg270
(dp1126
g296
(dp1127
g465
F0.9089961365610782
ssg14
(dp1128
g465
F0.622651546648279
ssg52
(dp1129
g465
F0.6618957897268138
ssg18
(dp1130
g465
F0.7321570302554777
ssg38
(dp1131
g465
F0.7090643973197656
ssg40
(dp1132
g465
F0.6770997177781153
ssg24
g811
sg46
(dp1133
g465
F0.6988745100766827
ssg66
(dp1134
g465
F0.6015974834636297
ssg48
(dp1135
g465
F0.6153818255229262
ssg352
(dp1136
g465
F0.8778813057943964
ssg260
g1022
sg262
g1049
sg194
(dp1137
g465
F0.7270704128586283
ssg268
g1121
sg274
(dp1138
g465
F0.8143472140044073
ssg276
(dp1139
g465
F0.6080316925530356
ssg372
(dp1140
g465
F0.7642756466364559
ssg412
(dp1141
g465
F0.6519044729219243
ssg286
(dp1142
g465
F0.7266908401910349
ssg416
(dp1143
g465
F0.741236654430326
ssg54
(dp1144
g465
F0.6704484910736693
ssg234
(dp1145
g465
F0.7777285609323498
ssg130
(dp1146
g465
F0.6064158124027492
ssg378
(dp1147
g465
F0.6276123522672333
ssg380
(dp1148
g465
F0.6684594265068403
ssg236
(dp1149
g465
F0.6160778281358011
ssg334
(dp1150
g465
F0.6336932344882134
ssg190
(dp1151
g465
F0.6544829320359702
ssg396
(dp1152
g465
F0.6069126767432489
ssg454
(dp1153
g465
F0.6519419957462785
ssg108
(dp1154
g465
F0.6312851187353603
ssg240
(dp1155
g465
F0.6785696324998307
ssg146
(dp1156
g465
F0.65799255178857
ssg148
(dp1157
g465
F0.6237440049252775
ssg150
(dp1158
g465
F0.6343830278960397
ssg152
(dp1159
g465
F0.6959558551040018
ssg90
(dp1160
g465
F0.6545822133320355
ssg158
(dp1161
g465
F0.8625000269165243
ssg406
(dp1162
g465
F0.6531602059174981
ssg408
(dp1163
g465
F0.6714855559162588
ssg456
(dp1164
g465
F0.6707814436214063
sssg272
(dp1165
g96
(dp1166
g465
F0.6291022407256551
ssg8
g523
sg100
(dp1167
g465
F0.608127845843974
ssg252
g679
sg254
g730
sg342
(dp1168
g465
F0.6541747175763165
ssg418
(dp1169
g465
F0.6293433323321314
ssg184
(dp1170
g465
F0.6195841446561597
ssg32
g938
sg298
(dp1171
g465
F0.6967241935771971
ssg264
(dp1172
g465
F0.8616326333267564
ssg362
(dp1173
g465
F0.9088124588756591
ssg160
(dp1174
g465
F0.6694565044435733
ssg162
(dp1175
g465
F0.6285039236885824
sssg12
(dp1176
g68
(dp1177
g465
F0.6748103929074402
sssg274
(dp1178
g286
(dp1179
g465
F1.1267567786517834
ssg294
(dp1180
g465
F0.7739926703530203
ssg296
(dp1181
g465
F0.948524040084075
ssg16
(dp1182
g465
F0.6822289497366447
ssg54
(dp1183
g465
F0.8766672455776137
ssg38
(dp1184
g465
F0.6978256126510972
ssg182
(dp1185
g465
F0.6741819995733793
ssg46
(dp1186
g465
F0.8427592273065376
ssg352
(dp1187
g465
F0.6625718796030275
ssg354
(dp1188
g465
F0.6282017106522674
ssg356
(dp1189
g465
F0.6956819991094383
ssg194
(dp1190
g465
F0.8911144829584633
ssg268
g1123
sg270
g1138
sg276
(dp1191
g465
F0.817797829876528
ssg370
(dp1192
g465
F0.6066268868154007
ssg316
(dp1193
g465
F0.7653814366856773
ssg412
(dp1194
g465
F0.8017899856255811
ssg210
(dp1195
g465
F0.8241809216132394
ssg416
(dp1196
g465
F0.6953925212550571
ssg112
(dp1197
g465
F0.6761867367577054
ssg78
(dp1198
g465
F0.6821650670504382
ssg260
g1023
sg234
(dp1199
g465
F0.7675283306132218
ssg282
(dp1200
g465
F0.7012998852088117
ssg380
(dp1201
g465
F0.6332784188695123
ssg90
(dp1202
g465
F0.6743663411836894
ssg190
(dp1203
g465
F0.6865244985432446
ssg396
(dp1204
g465
F0.8004206926664731
ssg398
(dp1205
g465
F0.8008608432072875
ssg414
(dp1206
g465
F0.6397962968114038
ssg284
(dp1207
g465
F0.6706269341061657
ssg142
(dp1208
g465
F0.6251070274856746
ssg144
(dp1209
g465
F0.6411486863245655
ssg88
(dp1210
g465
F0.7450748315764948
ssg154
(dp1211
g465
F0.6636211806489316
ssg406
(dp1212
g465
F0.8331791586397117
ssg408
(dp1213
g465
F0.7127973201788402
sssg276
(dp1214
g168
(dp1215
g465
F0.6778888350954048
ssg294
(dp1216
g465
F0.7508580098893424
ssg296
(dp1217
g465
F0.7353436638638121
ssg88
(dp1218
g465
F0.7085862227267415
ssg16
(dp1219
g465
F0.6954620023892906
ssg54
(dp1220
g465
F0.9800387031090011
ssg38
(dp1221
g465
F0.6089919427152394
ssg182
(dp1222
g465
F0.6552305437610391
ssg46
(dp1223
g465
F0.8989129182237219
ssg50
(dp1224
g465
F0.8714869507265903
ssg354
(dp1225
g465
F0.6212000019035309
ssg356
(dp1226
g465
F0.6851114481154928
ssg194
(dp1227
g465
F0.9360987564639179
ssg268
g1124
sg270
g1139
sg274
g1191
sg370
(dp1228
g465
F0.625296790085247
ssg316
(dp1229
g465
F0.7359232694946573
ssg410
(dp1230
g465
F0.9472695495578612
ssg412
(dp1231
g465
F1.026376890016283
ssg210
(dp1232
g465
F0.7079501342392115
ssg416
(dp1233
g465
F0.6945489075605382
ssg78
(dp1234
g465
F0.7453631887914994
ssg118
(dp1235
g465
F0.6231937598653603
ssg80
(dp1236
g465
F0.7569178005228829
ssg122
(dp1237
g465
F0.6621427922223366
ssg226
(dp1238
g465
F0.8247611091785793
ssg228
(dp1239
g465
F0.6148957492408713
ssg260
g1024
sg234
(dp1240
g465
F0.6350711799278087
ssg282
(dp1241
g465
F0.6468005714233982
ssg322
(dp1242
g465
F0.8041196958127005
ssg380
(dp1243
g465
F0.6247203460544166
ssg236
(dp1244
g465
F0.6717497520644528
ssg138
(dp1245
g465
F0.7562878149740057
ssg90
(dp1246
g465
F0.7150194851680937
ssg190
(dp1247
g465
F0.6559252237922902
ssg396
(dp1248
g465
F0.7711973124089916
ssg398
(dp1249
g465
F0.6989544107561607
ssg436
(dp1250
g465
F0.6383113320585501
ssg414
(dp1251
g465
F0.9770308408693816
ssg284
(dp1252
g465
F0.6682944681941163
ssg286
(dp1253
g465
F1.1633407202386896
ssg144
(dp1254
g465
F0.868091693848479
ssg148
(dp1255
g465
F0.7802477846036048
ssg150
(dp1256
g465
F0.7398054687635616
ssg152
(dp1257
g465
F0.608427172421546
ssg154
(dp1258
g465
F0.6602978587124539
ssg156
(dp1259
g465
F0.6982644099176377
ssg406
(dp1260
g465
F1.0218864799600615
ssg408
(dp1261
g465
F0.7953382746352808
sssg14
(dp1262
g392
(dp1263
g465
F0.6976996484264023
ssg394
(dp1264
g465
F0.6525021864046125
ssg432
(dp1265
g465
F0.7444247803095609
ssg206
(dp1266
g465
F0.6196588203561306
ssg438
(dp1267
g465
F0.6634968451752729
ssg334
(dp1268
g465
F0.6030574056183388
ssg18
(dp1269
g465
F0.7712064291317431
ssg402
(dp1270
g465
F0.9804152149992663
ssg426
(dp1271
g465
F0.7435489396316265
ssg352
(dp1272
g465
F0.6353250200749725
ssg260
g1013
sg262
g1043
sg196
(dp1273
g465
F0.6784513035183596
ssg270
g1128
sg452
(dp1274
g465
F0.675501110893847
ssg404
(dp1275
g465
F0.6630800959407295
ssg158
(dp1276
g465
F0.6205196098709247
ssg72
(dp1277
g465
F0.8703614147801411
sssg16
(dp1278
g168
(dp1279
g465
F0.7230456391309893
ssg296
(dp1280
g465
F0.6905832581471637
ssg54
(dp1281
g465
F0.6609494481722199
ssg182
(dp1282
g465
F0.6804914951363976
ssg28
g887
sg50
(dp1283
g465
F0.7705506357353626
ssg260
g1014
sg262
g1044
sg194
(dp1284
g465
F0.6645298071877123
ssg268
g1111
sg300
(dp1285
g465
F0.7087649211209985
ssg274
g1182
sg276
g1219
sg410
(dp1286
g465
F0.6578115043575201
ssg108
(dp1287
g465
F0.6665977018192101
ssg78
(dp1288
g465
F0.6276751190460955
ssg322
(dp1289
g465
F0.72009608786717
ssg138
(dp1290
g465
F0.6262401718791147
ssg388
(dp1291
g465
F0.9325456004224675
ssg392
(dp1292
g465
F0.7369871068881864
ssg394
(dp1293
g465
F0.6184688403875831
ssg396
(dp1294
g465
F0.9149800683409791
ssg398
(dp1295
g465
F0.7431939000828871
ssg356
(dp1296
g465
F0.7286370107271856
ssg284
(dp1297
g465
F0.8220613772366528
ssg286
(dp1298
g465
F0.775670346340314
ssg80
(dp1299
g465
F0.6630793459194371
ssg154
(dp1300
g465
F0.6152741113698271
ssg156
(dp1301
g465
F0.7175117834835668
sssg18
(dp1302
g392
(dp1303
g465
F0.9924101599481142
ssg190
(dp1304
g465
F0.6485700663410193
ssg322
(dp1305
g465
F0.6254605463323697
ssg396
(dp1306
g465
F0.6397325420911462
ssg14
g1269
sg394
(dp1307
g465
F0.6712681733819471
ssg402
(dp1308
g465
F0.7470529447676711
ssg352
(dp1309
g465
F0.6118850506170587
ssg260
g1015
sg262
g1045
sg270
g1130
sg158
(dp1310
g465
F0.7533651745632665
ssg372
(dp1311
g465
F0.6119531721839594
sssg20
(dp1312
g374
(dp1313
g465
F0.9142581465632852
ssg116
(dp1314
g465
F0.6643536766167101
ssg172
(dp1315
g465
F0.8548380787843891
ssg174
(dp1316
g465
F1.099783070169109
ssg252
g671
sg22
g772
sg184
(dp1317
g465
F0.6142408145863575
ssg26
g826
sg66
(dp1318
g465
F0.6093168685646647
ssg48
(dp1319
g465
F0.70946398750503
ssg34
g963
sg306
(dp1320
g465
F0.667368632791441
ssg366
(dp1321
g465
F0.6081906692355803
ssg96
(dp1322
g465
F0.6004353339742393
ssg212
(dp1323
g465
F0.6768067182887161
ssg214
(dp1324
g465
F0.6391637960138817
ssg216
(dp1325
g465
F0.7410367776770891
ssg218
(dp1326
g465
F0.6061665552631309
ssg222
(dp1327
g465
F0.6872555526962624
ssg84
(dp1328
g465
F1.1452309508374972
ssg126
(dp1329
g465
F0.9607496453660486
ssg444
(dp1330
g465
F0.6201559581758814
ssg318
(dp1331
g465
F0.7892183802958624
ssg376
(dp1332
g465
F0.9635070637660924
ssg378
(dp1333
g465
F0.8851838772342076
ssg134
(dp1334
g465
F0.6041306357863718
ssg384
(dp1335
g465
F0.9543678142280483
ssg386
(dp1336
g465
F0.7461835280866653
ssg334
(dp1337
g465
F0.6906004942659378
ssg336
(dp1338
g465
F1.3886547184074223
ssg338
(dp1339
g465
F1.2658212219754885
ssg340
(dp1340
g465
F1.1947530260963442
ssg420
(dp1341
g465
F0.9208444832889832
ssg442
(dp1342
g465
F0.6401627195150797
ssg146
(dp1343
g465
F0.6341050119384811
ssg92
(dp1344
g465
F0.6438703226370576
ssg94
(dp1345
g465
F1.0042394713861578
sssg258
(dp1346
g242
g496
sg8
g537
sg10
g581
sg248
g621
sg250
g662
sg252
g672
sg254
g723
sg256
g763
sg22
g773
sg184
(dp1347
g465
F0.6853113054359926
ssg26
g856
sg30
g931
sg34
g985
sg244
(dp1348
g465
F0.7433119098282338
ssg264
(dp1349
g465
F0.6391613727430849
ssg358
(dp1350
g465
F0.6649374499751358
ssg204
(dp1351
g465
F0.6863203105260632
ssg306
(dp1352
g465
F0.6972005317964386
ssg308
(dp1353
g465
F0.6739148819665357
ssg310
(dp1354
g465
F0.6598470674587519
ssg96
(dp1355
g465
F0.6460174538195738
ssg98
(dp1356
g465
F0.7162034653334699
ssg100
(dp1357
g465
F0.6056559280402126
ssg366
(dp1358
g465
F0.6231123818804234
ssg342
(dp1359
g465
F0.7303301170238735
ssg344
(dp1360
g465
F0.7404192538014599
ssg116
(dp1361
g465
F0.6317931451487847
ssg368
(dp1362
g465
F0.7005107809290565
ssg246
g1073
sg124
(dp1363
g465
F0.7708184638597199
ssg238
(dp1364
g465
F0.76492171704749
ssg390
(dp1365
g465
F0.9166646949568795
ssg434
(dp1366
g465
F0.6972518753688735
ssg298
(dp1367
g465
F0.687133080495933
ssg448
(dp1368
g465
F0.6874848672645609
ssg162
(dp1369
g465
F0.6347085996253845
sssg278
(dp1370
g294
(dp1371
g465
F0.6650013790334731
ssg176
(dp1372
g465
F0.7271564692234413
ssg180
(dp1373
g465
F0.7897652112480998
ssg182
(dp1374
g465
F0.7391567425971521
ssg186
(dp1375
g465
F0.6458445325615346
ssg188
(dp1376
g465
F0.6604763203280755
ssg354
(dp1377
g465
F0.6853154079120067
ssg192
(dp1378
g465
F0.7988058908339376
ssg194
(dp1379
g465
F0.6705817385644176
ssg200
(dp1380
g465
F0.6679782435765458
ssg370
(dp1381
g465
F0.6835377018576538
ssg316
(dp1382
g465
F0.7322801705081486
ssg284
(dp1383
g465
F0.6437977350972487
ssg286
(dp1384
g465
F0.638564888715883
ssg112
(dp1385
g465
F0.6748158280884861
ssg422
(dp1386
g465
F0.7620807553250578
ssg234
(dp1387
g465
F0.638023924451957
ssg280
(dp1388
g465
F0.7688211267949954
ssg282
(dp1389
g465
F1.0151245833184437
ssg138
(dp1390
g465
F0.6455956126819792
ssg332
(dp1391
g465
F0.703443140453348
ssg436
(dp1392
g465
F0.7087936048032778
ssg356
(dp1393
g465
F0.7963615573469812
ssg140
(dp1394
g465
F0.9089294955865578
ssg142
(dp1395
g465
F0.6811385190849693
ssg86
(dp1396
g465
F0.6017980879229357
ssg88
(dp1397
g465
F0.781575727618946
ssg406
(dp1398
g465
F0.6269749067634875
sssg280
(dp1399
g180
(dp1400
g465
F0.835288981027177
ssg182
(dp1401
g465
F0.8226605528955427
ssg26
g857
sg28
g897
sg188
(dp1402
g465
F0.972220434300302
ssg356
(dp1403
g465
F1.0935044713561415
ssg200
(dp1404
g465
F0.8263060687138676
ssg202
(dp1405
g465
F0.8074404930347852
ssg358
(dp1406
g465
F0.6189577391693954
ssg306
(dp1407
g465
F0.6072570376453768
ssg310
(dp1408
g465
F0.6328832969205742
ssg370
(dp1409
g465
F0.7749697374377712
ssg140
(dp1410
g465
F0.6689423011342485
ssg286
(dp1411
g465
F0.6139426052205494
ssg112
(dp1412
g465
F0.632737810129013
ssg422
(dp1413
g465
F0.7060710817159888
ssg120
(dp1414
g465
F0.7345453562887406
ssg122
(dp1415
g465
F0.6286475963336152
ssg232
(dp1416
g465
F0.681577767333454
ssg278
g1388
sg282
(dp1417
g465
F0.7358632965444409
ssg332
(dp1418
g465
F0.6964608118846896
ssg186
(dp1419
g465
F0.9772093921247309
ssg328
(dp1420
g465
F0.6103984357989517
ssg138
(dp1421
g465
F0.7832988679404949
ssg388
(dp1422
g465
F0.6319298542708773
ssg334
(dp1423
g465
F0.6014964613835361
ssg430
(dp1424
g465
F0.6438576682744507
ssg434
(dp1425
g465
F0.6929545685748031
ssg436
(dp1426
g465
F0.6413766418862648
ssg192
(dp1427
g465
F0.8277147208463042
ssg284
(dp1428
g465
F0.6178160490673813
ssg142
(dp1429
g465
F0.6705603155901714
ssg86
(dp1430
g465
F0.8477630433039492
sssg282
(dp1431
g294
(dp1432
g465
F0.77703817571929
ssg296
(dp1433
g465
F0.6294888833876165
ssg176
(dp1434
g465
F0.7068441880047283
ssg54
(dp1435
g465
F0.7187391173225817
ssg180
(dp1436
g465
F0.8498200538681024
ssg182
(dp1437
g465
F0.8568153923740985
ssg186
(dp1438
g465
F0.6591506016427493
ssg46
(dp1439
g465
F0.6164508099021179
ssg188
(dp1440
g465
F0.6550471428423953
ssg354
(dp1441
g465
F0.6345820963845481
ssg192
(dp1442
g465
F0.7447244023492995
ssg194
(dp1443
g465
F0.765235712105545
ssg200
(dp1444
g465
F0.6556174340822276
ssg274
g1200
sg276
g1241
sg370
(dp1445
g465
F0.6889002228822386
ssg316
(dp1446
g465
F1.0253821779629062
ssg284
(dp1447
g465
F0.673170822635141
ssg412
(dp1448
g465
F0.6505986469075343
ssg210
(dp1449
g465
F0.6808085950360125
ssg112
(dp1450
g465
F0.6871071897140419
ssg422
(dp1451
g465
F0.7073119967156117
ssg122
(dp1452
g465
F0.6320931780821076
ssg234
(dp1453
g465
F0.7144188607624052
ssg278
g1389
sg280
g1417
sg138
(dp1454
g465
F0.7182066385456983
ssg436
(dp1455
g465
F0.7566452274726208
ssg356
(dp1456
g465
F0.8215815545808608
ssg286
(dp1457
g465
F0.744392535925355
ssg140
(dp1458
g465
F0.7745973447878837
ssg142
(dp1459
g465
F0.6724379797007538
ssg88
(dp1460
g465
F0.8520259097422125
ssg406
(dp1461
g465
F0.7291158665910855
sssg42
(dp1462
g130
(dp1463
g465
F0.7343318637689425
ssg126
(dp1464
g465
F0.6257665240979814
ssg420
(dp1465
g465
F0.657219520706594
ssg334
(dp1466
g465
F0.7667022608349671
ssg66
(dp1467
g465
F0.8775123569941009
ssg48
(dp1468
g465
F0.6656705711413202
sssg44
(dp1469
g300
(dp1470
g465
F0.6036331639127963
ssg130
(dp1471
g465
F0.6501104030789284
ssg132
(dp1472
g465
F0.6935930473451234
ssg288
(dp1473
g465
F0.6470772398018471
ssg66
(dp1474
g465
F0.7860866386907103
sssg394
(dp1475
g392
(dp1476
g465
F0.7713749779193454
ssg14
g1264
sg16
g1293
sg402
(dp1477
g465
F0.7996487247574157
ssg18
g1307
sg262
g1060
ssg46
(dp1478
g294
(dp1479
g465
F0.6879464110723559
ssg296
(dp1480
g465
F0.8339228086464167
ssg88
(dp1481
g465
F0.6876776878493501
ssg54
(dp1482
g465
F0.7462457932406203
ssg38
(dp1483
g465
F0.6397855282653836
ssg58
(dp1484
g465
F0.6485545610365089
ssg50
(dp1485
g465
F0.7123699719124222
ssg190
(dp1486
g465
F0.6933175143966549
ssg194
(dp1487
g465
F0.8257359558997044
ssg268
g1114
sg270
g1133
sg274
g1186
sg276
g1223
sg316
(dp1488
g465
F0.6659769899802691
ssg412
(dp1489
g465
F0.8286877375501703
ssg210
(dp1490
g465
F0.7422459904427419
ssg416
(dp1491
g465
F0.6595310267405643
ssg118
(dp1492
g465
F0.6057774651745639
ssg80
(dp1493
g465
F0.6498666857606797
ssg226
(dp1494
g465
F0.6863152804081091
ssg234
(dp1495
g465
F0.7158059649181523
ssg282
g1439
sg236
(dp1496
g465
F0.6585658054158288
ssg90
(dp1497
g465
F0.6894945963710355
ssg260
g1016
sg396
(dp1498
g465
F0.6620815940773055
ssg398
(dp1499
g465
F0.6643950072152829
ssg436
(dp1500
g465
F0.6199516028202358
ssg414
(dp1501
g465
F0.7299038449961769
ssg284
(dp1502
g465
F0.6046146512083653
ssg286
(dp1503
g465
F0.8947853776257785
ssg144
(dp1504
g465
F0.9029251609106552
ssg146
(dp1505
g465
F0.605912415764451
ssg148
(dp1506
g465
F0.7070263888861447
ssg150
(dp1507
g465
F0.8662767036553481
ssg152
(dp1508
g465
F0.6616958017097067
ssg154
(dp1509
g465
F0.6135412905342547
ssg158
(dp1510
g465
F0.617918918334968
ssg406
(dp1511
g465
F0.8683854886053408
ssg408
(dp1512
g465
F0.8044530689964864
sssg196
(dp1513
g432
(dp1514
g465
F0.6208084571372643
ssg14
g1273
sg322
(dp1515
g465
F0.6022538133912787
ssg426
(dp1516
g465
F0.7081717567862791
ssg438
(dp1517
g465
F0.6041167491520177
ssg404
(dp1518
g465
F0.6297801558258965
sssg140
(dp1519
g294
(dp1520
g465
F0.6208445647724922
ssg176
(dp1521
g465
F0.8584011614118813
ssg356
(dp1522
g465
F0.734545311326769
ssg192
(dp1523
g465
F0.6281132810715301
ssg182
(dp1524
g465
F0.7027971940423832
ssg422
(dp1525
g465
F0.712015780082339
ssg354
(dp1526
g465
F0.9119370888807619
ssg286
(dp1527
g465
F0.636771439238056
ssg194
(dp1528
g465
F0.6266020620601856
ssg88
(dp1529
g465
F0.6920631931699815
ssg112
(dp1530
g465
F0.687255445576767
ssg278
g1394
sg280
g1410
sg282
g1458
sg370
(dp1531
g465
F0.6304381655240526
ssg316
(dp1532
g465
F0.6701772553565933
sssg48
(dp1533
g374
(dp1534
g465
F0.7850667722176864
ssg8
g518
sg172
(dp1535
g465
F0.7742004731713663
ssg174
(dp1536
g465
F0.6778735854514026
ssg252
g707
sg254
g755
sg20
g1319
sg40
(dp1537
g465
F0.6026812355434856
ssg42
g1468
sg26
g870
sg28
g890
sg66
(dp1538
g465
F0.9140863702664235
ssg34
g998
sg260
g1017
sg194
(dp1539
g465
F0.6354792537661603
ssg270
g1135
sg288
(dp1540
g465
F0.6261040823523762
ssg306
(dp1541
g465
F0.6957011912405653
ssg96
(dp1542
g465
F0.6198770419571162
ssg328
(dp1543
g465
F0.7552268236465468
ssg212
(dp1544
g465
F0.7692972874445951
ssg112
(dp1545
g465
F0.6243683751222889
ssg216
(dp1546
g465
F0.7060985544330776
ssg218
(dp1547
g465
F0.8856049889096078
ssg222
(dp1548
g465
F0.7334965216720448
ssg130
(dp1549
g465
F0.7425419957924058
ssg224
(dp1550
g465
F0.9323177008454072
ssg444
(dp1551
g465
F0.9092755537713231
ssg126
(dp1552
g465
F1.323949386297067
ssg184
(dp1553
g465
F0.6251741980690925
ssg318
(dp1554
g465
F0.7790906411434969
ssg376
(dp1555
g465
F0.775738880394823
ssg378
(dp1556
g465
F0.7975489327158072
ssg384
(dp1557
g465
F0.7481849810900187
ssg386
(dp1558
g465
F0.8067086210838254
ssg334
(dp1559
g465
F1.0540115504426881
ssg336
(dp1560
g465
F0.6760483574791105
ssg338
(dp1561
g465
F0.6295046822355244
ssg340
(dp1562
g465
F0.7934011410868531
ssg286
(dp1563
g465
F0.6175905870720428
ssg84
(dp1564
g465
F0.7420339381883397
ssg92
(dp1565
g465
F0.8527824406620785
ssg420
(dp1566
g465
F1.1002045829518923
sssg50
(dp1567
g168
(dp1568
g465
F0.7989694037172623
ssg16
g1283
sg54
(dp1569
g465
F0.6072789221954067
ssg46
g1485
sg190
(dp1570
g465
F0.6305478484522509
ssg276
g1224
sg410
(dp1571
g465
F0.9012916429066139
ssg412
(dp1572
g465
F0.6690926316900133
ssg414
(dp1573
g465
F0.6977378003086843
ssg78
(dp1574
g465
F0.6709978664086294
ssg144
(dp1575
g465
F0.6691853286740458
ssg228
(dp1576
g465
F0.6461165291786871
ssg322
(dp1577
g465
F0.6716774597078574
ssg138
(dp1578
g465
F0.6615989816133587
ssg90
(dp1579
g465
F0.6088589155293959
ssg396
(dp1580
g465
F0.8572152370908053
ssg398
(dp1581
g465
F0.6594691290256205
ssg284
(dp1582
g465
F0.6374572247114639
ssg286
(dp1583
g465
F0.7087149117060844
ssg80
(dp1584
g465
F0.9159220323988534
ssg148
(dp1585
g465
F0.6733629262795134
ssg150
(dp1586
g465
F0.7046590658327552
ssg236
(dp1587
g465
F0.699753807714375
ssg154
(dp1588
g465
F0.617746720779389
ssg156
(dp1589
g465
F1.094537265542452
sssg142
(dp1590
g294
(dp1591
g465
F0.8279569534026656
ssg296
(dp1592
g465
F0.6076808056321741
ssg182
(dp1593
g465
F0.6432529461708669
ssg188
(dp1594
g465
F0.6767334823029117
ssg192
(dp1595
g465
F0.6802361250055841
ssg194
(dp1596
g465
F0.6494874458020736
ssg274
g1208
sg370
(dp1597
g465
F0.9959082510805296
ssg412
(dp1598
g465
F0.605380255195266
ssg208
(dp1599
g465
F0.6337062749290708
ssg210
(dp1600
g465
F0.6453122434902616
ssg112
(dp1601
g465
F0.6346960192739497
ssg422
(dp1602
g465
F0.6092474666005082
ssg118
(dp1603
g465
F0.8110939104564674
ssg120
(dp1604
g465
F0.7166462675978595
ssg278
g1395
sg280
g1429
sg282
g1459
sg134
(dp1605
g465
F0.8310002424463415
ssg328
(dp1606
g465
F0.6284338578091117
ssg334
(dp1607
g465
F0.6295568185958321
ssg436
(dp1608
g465
F0.6430180083341318
ssg356
(dp1609
g465
F0.6971404372458269
ssg284
(dp1610
g465
F0.6342592308428111
ssg286
(dp1611
g465
F0.6733216207597598
ssg288
(dp1612
g465
F0.6821175378464832
ssg86
(dp1613
g465
F0.8675547905519282
ssg406
(dp1614
g465
F0.6628613788389337
ssg454
(dp1615
g465
F0.7177731848792985
ssg94
(dp1616
g465
F0.6696482379820571
sssg284
(dp1617
g294
(dp1618
g465
F0.6922305931848918
ssg296
(dp1619
g465
F0.6915451670587467
ssg16
g1297
sg54
(dp1620
g465
F0.6260793797116475
ssg182
(dp1621
g465
F0.8077631464114333
ssg46
g1502
sg422
(dp1622
g465
F0.6059242356622941
ssg50
g1582
sg356
(dp1623
g465
F0.9798140273913725
ssg194
(dp1624
g465
F0.6899838135680078
ssg274
g1207
sg276
g1252
sg370
(dp1625
g465
F0.6389084953182845
ssg316
(dp1626
g465
F0.7738523736940636
ssg210
(dp1627
g465
F0.6232893831435505
ssg112
(dp1628
g465
F0.6355629571941876
ssg78
(dp1629
g465
F0.6332801917645791
ssg228
(dp1630
g465
F0.6649675574667122
ssg286
(dp1631
g465
F0.7962536743838862
ssg278
g1383
sg280
g1428
sg282
g1447
sg130
(dp1632
g465
F0.7029807733875587
ssg322
(dp1633
g465
F0.6319687439191403
ssg138
(dp1634
g465
F0.7080500131040368
ssg388
(dp1635
g465
F0.7148906575747789
ssg396
(dp1636
g465
F0.7435161533354117
ssg398
(dp1637
g465
F0.7934964500639086
ssg142
g1610
sg80
(dp1638
g465
F0.6016034969563199
ssg88
(dp1639
g465
F0.7270232506956548
ssg154
(dp1640
g465
F0.9487097646315549
sssg286
(dp1641
g294
(dp1642
g465
F0.867886144657039
ssg296
(dp1643
g465
F0.9477115000607086
ssg16
g1298
sg54
(dp1644
g465
F1.0626486100627406
ssg38
(dp1645
g465
F0.6888341123850426
ssg182
(dp1646
g465
F0.7491282114238336
ssg46
g1503
sg422
(dp1647
g465
F0.6425681584840807
ssg48
g1563
sg352
(dp1648
g465
F0.7122313640837957
ssg260
g1027
sg262
g1063
sg194
(dp1649
g465
F1.2472603842306385
ssg268
g1117
sg270
g1142
sg274
g1179
sg276
g1253
sg370
(dp1650
g465
F0.6829580392730924
ssg316
(dp1651
g465
F0.7789827343368908
ssg284
g1631
sg410
(dp1652
g465
F0.6520930799696316
ssg176
(dp1653
g465
F0.6412453487306673
ssg210
(dp1654
g465
F0.8539447998692353
ssg416
(dp1655
g465
F0.7531275638934913
ssg112
(dp1656
g465
F0.7352414925523284
ssg78
(dp1657
g465
F0.7782086887330466
ssg118
(dp1658
g465
F0.6391324106885629
ssg226
(dp1659
g465
F0.8222350572187719
ssg234
(dp1660
g465
F0.8069941125124142
ssg278
g1384
sg280
g1411
sg282
g1457
sg90
(dp1661
g465
F0.7343066494394889
ssg128
(dp1662
g465
F0.6590080125389106
ssg130
(dp1663
g465
F0.6145354857866413
ssg322
(dp1664
g465
F0.7863816724073978
ssg380
(dp1665
g465
F0.7146490500111333
ssg236
(dp1666
g465
F0.6070848325050917
ssg138
(dp1667
g465
F0.6939952300218323
ssg388
(dp1668
g465
F0.6355951835330294
ssg334
(dp1669
g465
F0.6401479773427057
ssg414
(dp1670
g465
F0.8254565203111431
ssg190
(dp1671
g465
F0.6576152532497456
ssg50
g1583
sg412
(dp1672
g465
F1.0449846394073798
ssg354
(dp1673
g465
F0.7074613484526515
ssg396
(dp1674
g465
F0.8859442553856313
ssg398
(dp1675
g465
F0.8449526471481005
ssg436
(dp1676
g465
F0.6576615697629777
ssg356
(dp1677
g465
F0.801642899053283
ssg108
(dp1678
g465
F0.6579590702583451
ssg140
g1527
sg142
g1611
sg144
(dp1679
g465
F0.7613710543654835
ssg148
(dp1680
g465
F0.7086684581186492
ssg150
(dp1681
g465
F0.6497688012216388
ssg88
(dp1682
g465
F0.8467790521543267
ssg154
(dp1683
g465
F0.7051431236894298
ssg406
(dp1684
g465
F1.0030660198278367
ssg408
(dp1685
g465
F0.78640600951567
sssg288
(dp1686
g374
(dp1687
g465
F0.6261296924487587
ssg8
g548
sg172
(dp1688
g465
F0.6005455071687601
ssg252
g716
sg254
g760
sg124
(dp1689
g465
F0.6759191136304091
ssg40
(dp1690
g465
F0.6244414047501836
ssg44
g1473
sg28
g904
sg66
(dp1691
g465
F0.7596713702067555
ssg48
g1540
sg264
(dp1692
g465
F0.6594423132848816
ssg306
(dp1693
g465
F0.6203757256370749
ssg134
(dp1694
g465
F0.7311886530802282
ssg442
(dp1695
g465
F0.6854143823781897
ssg98
(dp1696
g465
F0.613272573275808
ssg212
(dp1697
g465
F0.6702060185619162
ssg214
(dp1698
g465
F0.6093089794541194
ssg216
(dp1699
g465
F0.6286744110432452
ssg222
(dp1700
g465
F0.6631088246500794
ssg126
(dp1701
g465
F0.633415090841662
ssg318
(dp1702
g465
F0.6094789321671124
ssg132
(dp1703
g465
F0.6125201882035424
ssg378
(dp1704
g465
F0.6478622133899954
ssg382
(dp1705
g465
F0.6093703307575612
ssg328
(dp1706
g465
F0.7815258231517606
ssg334
(dp1707
g465
F0.6992610512619946
ssg142
g1612
sg298
(dp1708
g465
F0.6355110087811814
ssg86
(dp1709
g465
F0.8495113607737376
ssg420
(dp1710
g465
F0.6335105780308097
sssg290
(dp1711
g320
(dp1712
g465
F0.6836413131043864
ssg292
(dp1713
g465
F0.698255372126515
ssg230
(dp1714
g465
F0.640013515763132
ssg146
(dp1715
g465
F0.6338635905612302
ssg94
(dp1716
g465
F0.6266736670776426
sssg292
(dp1717
g290
g1713
sg320
(dp1718
g465
F0.7073902226589275
ssg146
(dp1719
g465
F0.7145640455036592
ssg174
(dp1720
g465
F0.6023058053969708
ssg94
(dp1721
g465
F0.7392883480490902
sssg38
(dp1722
g296
(dp1723
g465
F0.7581097645890077
ssg52
(dp1724
g465
F0.8009429420492521
ssg54
(dp1725
g465
F0.6628692252742701
ssg58
(dp1726
g465
F0.8487073850546522
ssg24
g809
sg46
g1483
sg352
(dp1727
g465
F0.7528927956278549
ssg262
g1046
sg194
(dp1728
g465
F0.6559405673261088
ssg270
g1131
sg274
g1184
sg276
g1221
sg316
(dp1729
g465
F0.6053060763976634
ssg412
(dp1730
g465
F0.6065592555838193
ssg108
(dp1731
g465
F0.6269430985305788
ssg416
(dp1732
g465
F0.7466276693100327
ssg40
(dp1733
g465
F0.6017059175815072
ssg380
(dp1734
g465
F1.0259080881237765
ssg236
(dp1735
g465
F0.6592574331093176
ssg234
(dp1736
g465
F0.8189529760779422
ssg240
(dp1737
g465
F0.7006525363829518
ssg396
(dp1738
g465
F0.6256724070194707
ssg398
(dp1739
g465
F0.656018200215783
ssg454
(dp1740
g465
F0.6505410741657599
ssg210
(dp1741
g465
F0.7190947844726622
ssg286
g1645
sg146
(dp1742
g465
F0.8126194638271358
ssg150
(dp1743
g465
F0.6418253281100634
ssg152
(dp1744
g465
F0.7980376116677698
ssg406
(dp1745
g465
F0.654419478457885
ssg408
(dp1746
g465
F0.6801775169054866
ssg456
(dp1747
g465
F0.703777316336685
sssg296
(dp1748
g286
g1643
sg294
(dp1749
g465
F0.6666305062791749
ssg16
g1280
sg54
(dp1750
g465
F0.7799105570080042
ssg38
g1723
sg46
g1480
sg352
(dp1751
g465
F0.7388670469891463
ssg260
g1012
sg262
g1042
sg194
(dp1752
g465
F0.8561672748237115
ssg268
g1109
sg270
g1127
sg274
g1181
sg276
g1217
sg372
(dp1753
g465
F0.6916587095771303
ssg412
(dp1754
g465
F0.699971405791453
ssg210
(dp1755
g465
F0.8251595648006375
ssg416
(dp1756
g465
F0.6916285685233274
ssg234
(dp1757
g465
F0.8886457164440623
ssg282
g1433
sg316
(dp1758
g465
F0.6740552213245711
ssg380
(dp1759
g465
F0.696799102385337
ssg396
(dp1760
g465
F0.7664193821505845
ssg398
(dp1761
g465
F0.8369828900345238
ssg454
(dp1762
g465
F0.6885553868428289
ssg414
(dp1763
g465
F0.6226944283672005
ssg284
g1619
sg142
g1592
sg144
(dp1764
g465
F0.8004663369808377
ssg146
(dp1765
g465
F0.629793785469517
ssg150
(dp1766
g465
F0.740650825498432
ssg88
(dp1767
g465
F0.7330045112829234
ssg154
(dp1768
g465
F0.6484164991209885
ssg406
(dp1769
g465
F0.7645197856901402
ssg408
(dp1770
g465
F0.6622577885993465
ssg456
(dp1771
g465
F0.6862217266502597
sssg52
(dp1772
g380
(dp1773
g465
F0.6083267304577532
ssg270
g1129
sg240
(dp1774
g465
F1.143710660713292
ssg38
g1724
sg40
(dp1775
g465
F0.6473888301561819
ssg24
g812
sg152
(dp1776
g465
F0.8229761399900205
ssg312
(dp1777
g465
F0.7558981416791232
ssg262
g1051
sg146
(dp1778
g465
F0.7065838501382706
ssg150
(dp1779
g465
F0.6429982460800622
ssg236
(dp1780
g465
F0.6174243751244533
ssg58
(dp1781
g465
F0.648723532279816
ssg158
(dp1782
g465
F0.7621770155419294
sssg54
(dp1783
g182
(dp1784
g465
F0.669930779556483
ssg294
(dp1785
g465
F0.7733504665359979
ssg296
g1750
sg16
g1281
sg38
g1725
sg40
(dp1786
g465
F0.6072578343415082
ssg46
g1482
sg352
(dp1787
g465
F0.6594821898184258
ssg190
(dp1788
g465
F0.6036511982273342
ssg356
(dp1789
g465
F0.6287767864640349
ssg194
(dp1790
g465
F1.1631221490762071
ssg268
g1112
sg270
g1144
sg274
g1183
sg276
g1220
sg370
(dp1791
g465
F0.6042852324788286
ssg316
(dp1792
g465
F0.7763555185750294
ssg410
(dp1793
g465
F0.6290905584668016
ssg412
(dp1794
g465
F0.8845289574512925
ssg210
(dp1795
g465
F0.7574504946852159
ssg416
(dp1796
g465
F0.9284134272724088
ssg78
(dp1797
g465
F0.7036560229540557
ssg226
(dp1798
g465
F0.6896730275494698
ssg234
(dp1799
g465
F0.8125040950441897
ssg282
g1435
sg322
(dp1800
g465
F0.6594203611742886
ssg380
(dp1801
g465
F0.6968373339189353
ssg138
(dp1802
g465
F0.6125191148267786
ssg50
g1569
sg260
g1033
sg396
(dp1803
g465
F0.7135826613768778
ssg398
(dp1804
g465
F0.6264281617289519
ssg414
(dp1805
g465
F0.6810904049137584
ssg284
g1620
sg286
g1644
sg144
(dp1806
g465
F0.6562088300377303
ssg148
(dp1807
g465
F0.6412660382746647
ssg88
(dp1808
g465
F0.6861882997815605
ssg90
(dp1809
g465
F0.6569981536231596
ssg406
(dp1810
g465
F1.2134731037108153
ssg408
(dp1811
g465
F0.8673247830270788
sssg56
(dp1812
g126
(dp1813
g465
F0.6047019788078207
ssg8
g512
sg10
g580
sg248
g620
sg250
g631
sg252
g696
sg254
g722
sg22
g793
sg184
(dp1814
g465
F1.018390571606621
ssg26
g882
sg30
g908
sg32
g934
sg34
g1008
sg362
(dp1815
g465
F0.6985078359159187
ssg306
(dp1816
g465
F0.6722061721537594
ssg366
(dp1817
g465
F0.7475888339527688
ssg96
(dp1818
g465
F0.8763535723950461
ssg100
(dp1819
g465
F0.8094663973201369
ssg342
(dp1820
g465
F0.8562306536292794
ssg418
(dp1821
g465
F0.7455242520218053
ssg116
(dp1822
g465
F0.9264785470886244
ssg40
(dp1823
g465
F0.6240849686727279
ssg298
(dp1824
g465
F0.8311294132034192
ssg162
(dp1825
g465
F0.6543288783448289
sssg58
(dp1826
g294
(dp1827
g465
F0.6025134567749857
ssg380
(dp1828
g465
F0.8160196163239377
ssg412
(dp1829
g465
F0.6145860538377995
ssg52
g1781
sg210
(dp1830
g465
F0.6419899751685917
ssg38
g1726
sg24
g814
sg46
g1484
sg152
(dp1831
g465
F1.0602507872325073
ssg240
(dp1832
g465
F0.6913911305980427
ssg144
(dp1833
g465
F0.603386580851991
ssg146
(dp1834
g465
F0.7344927867933793
ssg148
(dp1835
g465
F0.601376545392403
ssg150
(dp1836
g465
F0.7242734771514405
ssg236
(dp1837
g465
F0.6693872993353144
ssg234
(dp1838
g465
F0.6546517692980351
ssg408
(dp1839
g465
F0.6134677492534534
ssg456
(dp1840
g465
F0.6217871720461299
sssg60
(dp1841
g64
(dp1842
g465
F0.6272227844385282
ssg68
(dp1843
g465
F0.7522979333457633
sssg62
(dp1844
g36
(dp1845
g465
F0.6618080102803119
sssg64
(dp1846
g60
g1842
ssg66
(dp1847
g126
(dp1848
g465
F0.8722366941504271
ssg374
(dp1849
g465
F0.6715970280992097
ssg8
g543
sg172
(dp1850
g465
F0.7220841624228216
ssg174
(dp1851
g465
F0.648923802869468
ssg252
g677
sg254
g753
sg20
g1318
sg22
g801
sg42
g1467
sg44
g1474
sg48
g1538
sg352
(dp1852
g465
F0.617289029361176
ssg194
(dp1853
g465
F0.6221711951851385
ssg270
g1134
sg288
g1691
sg306
(dp1854
g465
F0.6312461718639951
ssg442
(dp1855
g465
F0.6079171852730283
ssg98
(dp1856
g465
F0.6088509554292969
ssg100
(dp1857
g465
F0.6102075193129065
ssg328
(dp1858
g465
F0.8132467643327345
ssg212
(dp1859
g465
F0.7056474290431066
ssg214
(dp1860
g465
F0.6249136752509696
ssg216
(dp1861
g465
F0.7021691859054227
ssg218
(dp1862
g465
F0.6322343001554869
ssg222
(dp1863
g465
F0.6986423846107853
ssg130
(dp1864
g465
F0.8509678833134301
ssg224
(dp1865
g465
F0.6114968974394283
ssg124
(dp1866
g465
F0.6786808719511294
ssg444
(dp1867
g465
F0.658597724789493
ssg40
(dp1868
g465
F0.6285307342374072
ssg318
(dp1869
g465
F0.6972842659663644
ssg376
(dp1870
g465
F0.6221318169770128
ssg26
g869
sg384
(dp1871
g465
F0.6052309199472101
ssg96
(dp1872
g465
F0.6222676809977901
ssg334
(dp1873
g465
F0.9740492002785238
ssg340
(dp1874
g465
F0.6006426820190832
ssg378
(dp1875
g465
F0.7276974191437604
ssg34
g997
sg312
(dp1876
g465
F0.6248622855044567
ssg298
(dp1877
g465
F0.6327066298025673
ssg264
(dp1878
g465
F0.6080655843178365
ssg420
(dp1879
g465
F0.822602254499235
sssg68
(dp1880
g60
g1843
sg12
g1177
ssg358
(dp1881
g242
g481
sg8
g524
sg10
g566
sg248
g608
sg250
g639
sg252
g680
sg254
g731
sg256
g768
sg22
g780
sg184
(dp1882
g465
F0.6831453078348617
ssg26
g838
sg30
g913
sg32
g939
sg34
g969
sg244
(dp1883
g465
F0.778626546976101
ssg246
g1076
sg40
(dp1884
g465
F0.6358080219399631
ssg200
(dp1885
g465
F0.7067181302977366
ssg202
(dp1886
g465
F0.6786019148236676
ssg304
(dp1887
g465
F0.7419684840245646
ssg306
(dp1888
g465
F0.7041950333227538
ssg308
(dp1889
g465
F1.1623421196720674
ssg310
(dp1890
g465
F1.3199382038607654
ssg96
(dp1891
g465
F0.6919267190871963
ssg98
(dp1892
g465
F0.6109931779424175
ssg364
(dp1893
g465
F0.6385044832641007
ssg366
(dp1894
g465
F0.6166728738034665
ssg342
(dp1895
g465
F0.7592607436461072
ssg344
(dp1896
g465
F0.7277870257248739
ssg116
(dp1897
g465
F0.722457181519073
ssg368
(dp1898
g465
F0.8695323641017438
ssg258
g1350
sg280
g1406
sg448
(dp1899
g465
F0.6398792816308907
ssg382
(dp1900
g465
F0.6093718952583804
ssg238
(dp1901
g465
F1.0784997893748176
ssg390
(dp1902
g465
F0.6552103263917582
ssg338
(dp1903
g465
F0.607007984595631
ssg100
(dp1904
g465
F0.6257776382314201
ssg188
(dp1905
g465
F0.650260505897298
ssg430
(dp1906
g465
F1.0366166573333986
ssg434
(dp1907
g465
F1.254533020177266
ssg298
(dp1908
g465
F0.6695428958692056
ssg446
(dp1909
g465
F0.8124084206915809
ssg86
(dp1910
g465
F0.6117441460509652
ssg162
(dp1911
g465
F0.6652637149989018
ssg204
(dp1912
g465
F0.8878833634214779
sssg244
(dp1913
g242
g478
sg10
g563
sg248
g598
sg252
g669
sg258
g1348
sg184
(dp1914
g465
F0.632156612567222
ssg26
g833
sg348
(dp1915
g465
F0.6242785161653673
ssg34
g965
sg246
g1071
sg358
g1883
sg360
(dp1916
g465
F0.6462555602281627
ssg204
(dp1917
g465
F0.753412828508377
ssg364
(dp1918
g465
F0.6166360358794656
ssg308
(dp1919
g465
F0.8782522810239988
ssg368
(dp1920
g465
F0.9138145685949718
ssg96
(dp1921
g465
F0.6714638794506635
ssg98
(dp1922
g465
F0.6303442585451272
ssg306
(dp1923
g465
F0.632612187928225
ssg342
(dp1924
g465
F0.8184418612378176
ssg344
(dp1925
g465
F0.8895052754847986
ssg116
(dp1926
g465
F0.7073019381582071
ssg310
(dp1927
g465
F0.7292083205595813
ssg238
(dp1928
g465
F1.1141568790811935
ssg390
(dp1929
g465
F0.6541564736832771
ssg434
(dp1930
g465
F0.6969872330584379
ssg298
(dp1931
g465
F0.6727805514423217
ssg448
(dp1932
g465
F0.719592207970013
ssg162
(dp1933
g465
F0.7336033204243807
sssg302
(dp1934
g438
(dp1935
g465
F0.7242130368460529
ssg450
(dp1936
g465
F0.7187451965800388
sssg362
(dp1937
g8
g526
sg250
g663
sg252
g713
sg254
g735
sg56
g1815
sg22
g804
sg184
(dp1938
g465
F0.7696892568043023
ssg26
g840
sg30
g917
sg32
g943
sg34
g1004
sg264
(dp1939
g465
F0.9411398439011374
ssg272
g1173
sg366
(dp1940
g465
F0.7958419781192647
ssg96
(dp1941
g465
F0.765164191258856
ssg100
(dp1942
g465
F0.6635769961633767
ssg342
(dp1943
g465
F0.8455078169301388
ssg418
(dp1944
g465
F0.7063501684415978
ssg116
(dp1945
g465
F0.749119503732476
ssg124
(dp1946
g465
F0.6247767616533274
ssg298
(dp1947
g465
F0.7516589495231857
ssg344
(dp1948
g465
F0.7046510467548296
ssg162
(dp1949
g465
F0.7528973179366217
sssg326
(dp1950
g330
(dp1951
g465
F0.6745255075392949
sssg70
(dp1952
g150
(dp1953
g465
F0.7976993516466899
ssg80
(dp1954
g465
F0.6434839171561243
ssg428
(dp1955
g465
F0.6158433699437947
ssg72
(dp1956
g465
F0.6689134067480351
ssg144
(dp1957
g465
F0.63550261732955
ssg268
g1116
sg158
(dp1958
g465
F0.6913883559724588
ssg372
(dp1959
g465
F0.7862525372836365
sssg364
(dp1960
g244
g1918
sg246
g1085
sg308
(dp1961
g465
F0.641454431475201
ssg238
(dp1962
g465
F0.6912484002583958
ssg344
(dp1963
g465
F0.647252323713276
ssg346
(dp1964
g465
F0.6640086263896686
ssg368
(dp1965
g465
F0.8496807082637581
ssg438
(dp1966
g465
F0.7459076406757482
ssg358
g1893
sg10
g574
sg446
(dp1967
g465
F0.8890558086216556
ssg448
(dp1968
g465
F0.6769597745874962
ssg450
(dp1969
g465
F0.8024162077326202
ssg452
(dp1970
g465
F0.7197287055296223
ssg404
(dp1971
g465
F1.0856178252013098
ssg360
(dp1972
g465
F0.6709486983707792
ssg304
(dp1973
g465
F0.8944936757101977
ssg206
(dp1974
g465
F0.6063469807884444
ssg162
(dp1975
g465
F0.6179859383633742
ssg310
(dp1976
g465
F0.6114627317990439
ssg204
(dp1977
g465
F0.6163187873908724
sssg72
(dp1978
g70
g1956
sg322
(dp1979
g465
F0.6274568686829207
ssg190
(dp1980
g465
F0.6838427537019195
ssg14
g1277
sg352
(dp1981
g465
F0.6735253209580899
ssg260
g1036
sg262
g1053
sg80
(dp1982
g465
F0.6700045849637292
ssg148
(dp1983
g465
F0.9220173093264104
ssg236
(dp1984
g465
F0.8053448856555279
ssg90
(dp1985
g465
F0.6824421001816122
ssg410
(dp1986
g465
F0.6123982447759728
ssg158
(dp1987
g465
F0.7109620419392206
sssg74
(dp1988
sg366
(dp1989
g126
(dp1990
g465
F0.6231328710769118
ssg242
g490
sg8
g528
sg10
g575
sg248
g615
sg250
g648
sg252
g689
sg254
g734
sg20
g1321
sg22
g789
sg184
(dp1991
g465
F0.9135626841353025
ssg26
g849
sg30
g916
sg32
g947
sg34
g980
sg264
(dp1992
g465
F0.7550932673704142
ssg40
(dp1993
g465
F0.6576800713056882
ssg358
g1894
sg172
(dp1994
g465
F0.6028010021694201
ssg362
g1940
sg306
(dp1995
g465
F0.7704192654875752
ssg96
(dp1996
g465
F0.8684202592654912
ssg98
(dp1997
g465
F0.7409667765414627
ssg100
(dp1998
g465
F0.6670147168816241
ssg342
(dp1999
g465
F0.8012264597781126
ssg344
(dp2000
g465
F0.684454054627403
ssg116
(dp2001
g465
F0.8653232697050356
ssg56
g1817
sg258
g1358
sg374
(dp2002
g465
F0.6107736943731011
ssg376
(dp2003
g465
F0.6456049432869029
ssg378
(dp2004
g465
F0.6097118284266239
ssg384
(dp2005
g465
F0.6309184938697234
ssg390
(dp2006
g465
F0.641691105767282
ssg124
(dp2007
g465
F0.8308638975338799
ssg434
(dp2008
g465
F0.6702590644872184
ssg298
(dp2009
g465
F0.811587838094055
ssg418
(dp2010
g465
F0.6218515888600973
ssg162
(dp2011
g465
F0.6604059951451886
sssg78
(dp2012
g294
(dp2013
g465
F1.026445710700909
ssg16
g1288
sg54
g1797
sg182
(dp2014
g465
F0.6699287628618558
ssg50
g1574
sg260
g1029
sg356
(dp2015
g465
F0.7360302117372286
ssg194
(dp2016
g465
F0.666907079650833
ssg274
g1198
sg276
g1234
sg370
(dp2017
g465
F0.7297576833906879
ssg316
(dp2018
g465
F0.6279286467238092
ssg412
(dp2019
g465
F0.6871914923339039
ssg210
(dp2020
g465
F0.8234216375164034
ssg138
(dp2021
g465
F0.6594340442516193
ssg396
(dp2022
g465
F0.7745187209143723
ssg398
(dp2023
g465
F0.627804615114011
ssg414
(dp2024
g465
F0.6132347844196362
ssg284
g1629
sg286
g1657
sg148
(dp2025
g465
F0.6528767029778227
ssg90
(dp2026
g465
F0.627691650069008
ssg406
(dp2027
g465
F0.619344038298715
sssg144
(dp2028
g294
(dp2029
g465
F0.6329607642731595
ssg296
g1764
sg54
g1806
sg58
g1833
sg46
g1504
sg50
g1575
sg194
(dp2030
g465
F0.7273702508267557
ssg268
g1118
sg274
g1209
sg276
g1254
sg412
(dp2031
g465
F0.8062145039050359
ssg210
(dp2032
g465
F0.6563572621485235
ssg226
(dp2033
g465
F0.6547852756032709
ssg234
(dp2034
g465
F0.6047425087020142
ssg236
(dp2035
g465
F0.6008813124480079
ssg398
(dp2036
g465
F0.608991576490734
ssg414
(dp2037
g465
F0.9397938523314329
ssg70
g1957
sg286
g1679
sg80
(dp2038
g465
F0.6449876244191655
ssg148
(dp2039
g465
F0.6500971660184666
ssg150
(dp2040
g465
F1.04654379392685
ssg88
(dp2041
g465
F0.6058452350941899
ssg90
(dp2042
g465
F0.6244622912455149
ssg156
(dp2043
g465
F0.6033832625515638
ssg406
(dp2044
g465
F0.7680722593857982
ssg408
(dp2045
g465
F0.6400325722018102
sssg82
(dp2046
g76
(dp2047
g465
F0.6336738605085095
sssg368
(dp2048
g242
g494
sg244
g1920
sg10
g579
sg248
g619
sg258
g1362
sg26
g854
sg404
(dp2049
g465
F0.6508146127093083
ssg246
g1088
sg358
g1898
sg360
(dp2050
g465
F0.6172584120603433
ssg304
(dp2051
g465
F0.6331674567719774
ssg364
g1965
sg308
(dp2052
g465
F0.9339107151990712
ssg310
(dp2053
g465
F0.8145553816723584
ssg342
(dp2054
g465
F0.6382841635942024
ssg344
(dp2055
g465
F0.7254888235424034
ssg238
(dp2056
g465
F1.0588504832466772
ssg390
(dp2057
g465
F0.6204385505886502
ssg434
(dp2058
g465
F0.6877522979205042
ssg446
(dp2059
g465
F0.8410572656175604
ssg448
(dp2060
g465
F0.8444627080597628
ssg162
(dp2061
g465
F0.6025667598554224
ssg204
(dp2062
g465
F0.7650713794771706
sssg146
(dp2063
g290
g1715
sg292
g1719
sg296
g1765
sg174
(dp2064
g465
F0.9369557173508183
ssg52
g1778
sg20
g1343
sg58
g1834
sg24
g818
sg46
g1505
sg194
(dp2065
g465
F0.6108106527854388
ssg270
g1156
sg208
(dp2066
g465
F0.6698216808329632
ssg416
(dp2067
g465
F0.6560307167110268
ssg38
g1742
sg234
(dp2068
g465
F0.8739622084109216
ssg320
(dp2069
g465
F0.7248186980837901
ssg380
(dp2070
g465
F0.993409828112334
ssg336
(dp2071
g465
F0.6086315667846989
ssg338
(dp2072
g465
F0.6411757958344078
ssg340
(dp2073
g465
F0.6226757500053682
ssg436
(dp2074
g465
F0.6223041615039561
ssg454
(dp2075
g465
F0.7132695555613869
ssg456
(dp2076
g465
F0.6831852603616336
ssg240
(dp2077
g465
F0.7267468441974237
ssg150
(dp2078
g465
F0.6338663517467205
ssg152
(dp2079
g465
F0.7623290744840057
ssg406
(dp2080
g465
F0.6537062276039797
ssg408
(dp2081
g465
F0.6460290286958918
ssg94
(dp2082
g465
F1.1766745224788833
sssg224
(dp2083
g374
(dp2084
g465
F0.7336888767018246
ssg376
(dp2085
g465
F0.7679443005422878
ssg218
(dp2086
g465
F1.3210501241691444
ssg172
(dp2087
g465
F0.7467866738506636
ssg384
(dp2088
g465
F0.7405246709224761
ssg386
(dp2089
g465
F0.8011502977377334
ssg212
(dp2090
g465
F0.8990862496821578
ssg126
(dp2091
g465
F0.8972221782399231
ssg216
(dp2092
g465
F0.7206019298118383
ssg334
(dp2093
g465
F0.7023809167150549
ssg66
g1865
sg48
g1550
sg340
(dp2094
g465
F0.6172729733978822
ssg444
(dp2095
g465
F1.0583062982302276
ssg222
(dp2096
g465
F0.8265650672065853
ssg92
(dp2097
g465
F0.7096796252864104
ssg420
(dp2098
g465
F0.8407446850499604
sssg76
(dp2099
g230
(dp2100
g465
F0.7201968771851164
ssg82
g2047
ssg372
(dp2101
g392
(dp2102
g465
F0.6587805324140791
ssg322
(dp2103
g465
F0.6223965995744637
ssg296
g1753
sg18
g1311
sg352
(dp2104
g465
F0.6544220173426831
ssg70
g1959
sg262
g1050
sg266
g1105
sg268
g1125
sg270
g1140
sg398
(dp2105
g465
F0.6386424516737108
ssg158
(dp2106
g465
F0.6485435318870882
ssg456
(dp2107
g465
F0.6417709738582681
ssg150
(dp2108
g465
F0.6632161936716015
sssg150
(dp2109
g296
g1766
sg52
g1779
sg38
g1743
sg58
g1836
sg24
g820
sg46
g1507
sg50
g1586
sg194
(dp2110
g465
F0.6004735892938212
ssg268
g1120
sg270
g1158
sg276
g1256
sg372
g2108
sg412
(dp2111
g465
F0.6670314532307784
ssg240
(dp2112
g465
F0.6252849708235131
ssg80
(dp2113
g465
F0.7399420757809936
ssg226
(dp2114
g465
F0.6365517053147259
ssg234
(dp2115
g465
F0.6349525115300104
ssg236
(dp2116
g465
F0.730075759872908
ssg414
(dp2117
g465
F0.6787372637004516
ssg70
g1953
sg286
g1681
sg144
g2040
sg146
g2078
sg148
(dp2118
g465
F0.6780593865004766
ssg152
(dp2119
g465
F0.772440727983205
ssg156
(dp2120
g465
F0.6852705362771192
ssg158
(dp2121
g465
F0.7370660878046565
ssg406
(dp2122
g465
F0.6486245368604097
ssg408
(dp2123
g465
F0.6727945943160577
ssg456
(dp2124
g465
F0.6378815780662834
sssg318
(dp2125
g172
(dp2126
g465
F0.7193965942114953
ssg174
(dp2127
g465
F0.7867444206968149
ssg252
g698
sg130
(dp2128
g465
F0.6119657549130054
ssg20
g1331
sg40
(dp2129
g465
F0.6084804800662094
ssg26
g859
sg66
g1869
sg48
g1554
sg34
g986
sg288
g1702
sg306
(dp2130
g465
F0.6448185452516233
ssg328
(dp2131
g465
F0.851541810819594
ssg212
(dp2132
g465
F0.6256988224839675
ssg214
(dp2133
g465
F0.6819849797189669
ssg216
(dp2134
g465
F0.730051625523292
ssg222
(dp2135
g465
F0.6799058324402829
ssg444
(dp2136
g465
F0.6739553144936861
ssg126
(dp2137
g465
F0.8418377243116866
ssg320
(dp2138
g465
F0.7332382696944196
ssg374
(dp2139
g465
F0.7863831449127117
ssg376
(dp2140
g465
F0.7246819539355469
ssg378
(dp2141
g465
F0.7981049040619235
ssg324
(dp2142
g465
F0.6069661557048993
ssg134
(dp2143
g465
F0.6260653760875461
ssg384
(dp2144
g465
F0.7004045401310806
ssg334
(dp2145
g465
F0.9847869712309817
ssg336
(dp2146
g465
F0.7040116381941985
ssg338
(dp2147
g465
F0.7207756558896256
ssg340
(dp2148
g465
F0.710686843313428
ssg420
(dp2149
g465
F1.0334631037195894
ssg442
(dp2150
g465
F0.6834294613709367
ssg84
(dp2151
g465
F0.693085118323631
ssg94
(dp2152
g465
F0.7050076768459623
sssg36
(dp2153
g62
g1845
ssg322
(dp2154
g168
(dp2155
g465
F0.6523628347539583
ssg16
g1289
sg18
g1305
sg352
(dp2156
g465
F0.6032674974268799
ssg260
g1031
sg194
(dp2157
g465
F0.6856312723865782
ssg196
g1515
sg268
g1107
sg276
g1242
sg372
g2103
sg410
(dp2158
g465
F0.8780662572073071
ssg412
(dp2159
g465
F0.6205632149733491
ssg414
(dp2160
g465
F0.7552205921393856
ssg54
g1800
sg426
(dp2161
g465
F0.6713323394497692
ssg286
g1664
sg388
(dp2162
g465
F0.7099821538763975
ssg50
g1577
sg392
(dp2163
g465
F0.60190494638464
ssg432
(dp2164
g465
F0.7672412736571887
ssg396
(dp2165
g465
F0.6858865722196641
ssg398
(dp2166
g465
F0.615479598354331
ssg108
(dp2167
g465
F0.6138325989690452
ssg284
g1633
sg72
g1979
sg80
(dp2168
g465
F0.737126999321464
sssg324
(dp2169
g318
g2142
sg320
(dp2170
g465
F0.6420955296121101
ssg334
(dp2171
g465
F0.6070375511313898
ssg328
(dp2172
g465
F0.6448861838019392
ssg130
(dp2173
g465
F0.6264708771345266
sssg152
(dp2174
g52
g1776
sg38
g1744
sg58
g1831
sg24
g815
sg46
g1508
sg352
(dp2175
g465
F0.6303214871852977
ssg262
g1067
sg270
g1159
sg276
g1257
sg412
(dp2176
g465
F0.7086147911869797
ssg208
(dp2177
g465
F0.6389661751028527
ssg118
(dp2178
g465
F0.6963986001582478
ssg234
(dp2179
g465
F0.6410735782908645
ssg380
(dp2180
g465
F0.7363805375620933
ssg312
(dp2181
g465
F0.6991967051088347
ssg240
(dp2182
g465
F1.1637673214831983
ssg80
(dp2183
g465
F0.6010259622294574
ssg146
g2079
sg148
(dp2184
g465
F0.6343404562988953
ssg150
g2119
sg236
(dp2185
g465
F0.6945364398747677
ssg158
(dp2186
g465
F0.6783863314580141
ssg406
(dp2187
g465
F0.6271381806398343
ssg454
(dp2188
g465
F0.6262782066912069
ssg456
(dp2189
g465
F0.6491716594348846
sssg328
(dp2190
g174
(dp2191
g465
F0.6292509260797301
ssg254
g739
sg124
(dp2192
g465
F0.6187931957601279
ssg126
(dp2193
g465
F0.7149469209619497
ssg26
g848
sg66
g1858
sg48
g1543
sg34
g979
sg212
(dp2194
g465
F0.6162780606387412
ssg420
(dp2195
g465
F0.7625672127669288
ssg222
(dp2196
g465
F0.631006723248676
ssg280
g1420
sg318
g2131
sg130
(dp2197
g465
F0.8771488557829694
ssg378
(dp2198
g465
F0.668134246594341
ssg324
g2172
sg134
(dp2199
g465
F0.694653563000493
ssg334
(dp2200
g465
F1.0062678107106198
ssg142
g1606
sg442
(dp2201
g465
F0.6233217731568961
ssg288
g1706
sg86
(dp2202
g465
F0.6777411186833716
sssg330
(dp2203
g326
g1951
ssg332
(dp2204
g434
(dp2205
g465
F0.6082587327135884
ssg450
(dp2206
g465
F0.6660437380613777
ssg180
(dp2207
g465
F0.696360429912875
ssg186
(dp2208
g465
F0.6321037408345945
ssg188
(dp2209
g465
F0.6152363312416104
ssg192
(dp2210
g465
F0.7672622892025972
ssg446
(dp2211
g465
F0.6217756274934978
ssg200
(dp2212
g465
F0.6571339542945898
ssg202
(dp2213
g465
F0.6169932456100552
ssg278
g1391
sg304
(dp2214
g465
F0.6474737043769994
ssg280
g1418
ssg334
(dp2215
g374
(dp2216
g465
F0.7471313694477955
ssg218
(dp2217
g465
F0.6553883491899225
ssg172
(dp2218
g465
F0.7240593290693411
ssg14
g1268
sg252
g712
sg254
g757
sg20
g1337
sg40
(dp2219
g465
F0.6510512737413701
ssg42
g1466
sg26
g876
sg28
g900
sg66
g1873
sg48
g1559
sg34
g994
sg260
g1032
sg194
(dp2220
g465
F0.6504464302205631
ssg270
g1150
sg288
g1707
sg306
(dp2221
g465
F0.6817327983037292
ssg174
(dp2222
g465
F0.7314889329867524
ssg384
(dp2223
g465
F0.7194089147502971
ssg286
g1669
sg212
(dp2224
g465
F0.7090016706012716
ssg214
(dp2225
g465
F0.6269860136430018
ssg216
(dp2226
g465
F0.7149758497551423
ssg422
(dp2227
g465
F0.6142034359662738
ssg222
(dp2228
g465
F0.7028750354588317
ssg130
(dp2229
g465
F0.8994523311538921
ssg224
g2093
sg444
(dp2230
g465
F0.8134502455336593
ssg126
(dp2231
g465
F1.0493286410983453
ssg280
g1423
sg318
g2145
sg376
(dp2232
g465
F0.721523931904752
ssg378
(dp2233
g465
F0.7707975159659404
ssg324
g2171
sg134
(dp2234
g465
F0.6395229208571742
ssg328
g2200
sg386
(dp2235
g465
F0.6516767786216541
ssg336
(dp2236
g465
F0.6482923944370401
ssg338
(dp2237
g465
F0.6028807479569602
ssg340
(dp2238
g465
F0.7291241458873408
ssg352
(dp2239
g465
F0.6069368642735165
ssg412
(dp2240
g465
F0.6374160018954487
ssg142
g1607
sg442
(dp2241
g465
F0.6368220350057329
ssg84
(dp2242
g465
F0.6664210994096841
ssg86
(dp2243
g465
F0.6355522337901206
ssg112
(dp2244
g465
F0.6414903663342486
ssg92
(dp2245
g465
F0.695360525609742
ssg420
(dp2246
g465
F1.285113400962577
sssg336
(dp2247
g374
(dp2248
g465
F0.7530101823938377
ssg172
(dp2249
g465
F0.7181356272104489
ssg174
(dp2250
g465
F0.9621201742207992
ssg20
g1338
sg126
(dp2251
g465
F0.8473417531847292
ssg26
g867
sg48
g1560
sg34
g995
sg306
(dp2252
g465
F0.6682580333369175
ssg216
(dp2253
g465
F0.640869084669603
ssg146
g2071
sg318
g2146
sg376
(dp2254
g465
F0.8184742630855751
ssg378
(dp2255
g465
F0.7605035451937754
ssg384
(dp2256
g465
F0.7936762701301577
ssg386
(dp2257
g465
F0.7826275521086394
ssg334
g2236
sg338
(dp2258
g465
F1.40078551393635
ssg340
(dp2259
g465
F1.4946217240771345
ssg94
(dp2260
g465
F0.9913526973087696
ssg84
(dp2261
g465
F1.4330189024720894
ssg92
(dp2262
g465
F0.7973363012758031
ssg420
(dp2263
g465
F0.818853521935088
sssg338
(dp2264
g374
(dp2265
g465
F0.7615097819305281
ssg172
(dp2266
g465
F0.7210657972665812
ssg174
(dp2267
g465
F0.9765745045127644
ssg20
g1339
sg126
(dp2268
g465
F0.7533540163914052
ssg26
g868
sg48
g1561
sg34
g996
sg192
(dp2269
g465
F0.6115707769208039
ssg200
(dp2270
g465
F0.6058159044523421
ssg358
g1903
sg306
(dp2271
g465
F0.6922621979521063
ssg342
(dp2272
g465
F0.6093462208529068
ssg214
(dp2273
g465
F0.6048381395431011
ssg216
(dp2274
g465
F0.6640047458096496
ssg116
(dp2275
g465
F0.671318554688313
ssg222
(dp2276
g465
F0.6366735338251613
ssg146
g2072
sg318
g2147
sg376
(dp2277
g465
F0.8230317994187026
ssg378
(dp2278
g465
F0.7697701053435557
ssg134
(dp2279
g465
F0.6294243723164549
ssg384
(dp2280
g465
F0.7865263760590929
ssg386
(dp2281
g465
F0.6700072821148523
ssg334
g2237
sg336
g2258
sg340
(dp2282
g465
F1.1397190255133776
ssg434
(dp2283
g465
F0.6323178297768922
ssg420
(dp2284
g465
F0.7322088018194923
ssg442
(dp2285
g465
F0.6415643823684996
ssg84
(dp2286
g465
F1.0757956577938528
ssg92
(dp2287
g465
F0.6592915998272227
ssg94
(dp2288
g465
F1.220764346880938
sssg340
(dp2289
g374
(dp2290
g465
F0.7807782611175673
ssg172
(dp2291
g465
F0.7007280004119413
ssg174
(dp2292
g465
F0.8789116871602973
ssg20
g1340
sg126
(dp2293
g465
F0.9866277598770707
ssg26
g872
sg66
g1874
sg48
g1562
sg34
g1000
sg306
(dp2294
g465
F0.641934814825238
ssg216
(dp2295
g465
F0.6719286654070464
ssg218
(dp2296
g465
F0.6136452802069899
ssg224
g2094
sg146
g2073
sg444
(dp2297
g465
F0.6367803583314485
ssg318
g2148
sg376
(dp2298
g465
F0.8669626219616552
ssg378
(dp2299
g465
F0.7616383485378234
ssg384
(dp2300
g465
F0.8047205740485281
ssg386
(dp2301
g465
F0.9902688055681691
ssg334
g2238
sg336
g2259
sg338
g2282
sg420
(dp2302
g465
F0.9306319329870015
ssg84
(dp2303
g465
F1.7011404290145407
ssg92
(dp2304
g465
F1.0429700256629346
ssg94
(dp2305
g465
F0.8818168082571239
sssg154
(dp2306
g130
(dp2307
g465
F0.603270636939111
ssg396
(dp2308
g465
F0.6859584552827911
ssg296
g1768
sg16
g1300
sg138
(dp2309
g465
F0.6105886202045503
ssg228
(dp2310
g465
F0.6385330307700601
ssg182
(dp2311
g465
F0.6602492656748126
ssg210
(dp2312
g465
F0.6049266449363516
ssg46
g1509
sg50
g1588
sg284
g1640
sg286
g1683
sg194
(dp2313
g465
F0.6029452176167981
ssg88
(dp2314
g465
F0.7738634424914603
ssg398
(dp2315
g465
F0.6651510583335408
ssg274
g1211
sg276
g1258
sg356
(dp2316
g465
F0.6541616259448975
ssg316
(dp2317
g465
F0.9556295973890054
sssg138
(dp2318
g168
(dp2319
g465
F0.6059033465665314
ssg294
(dp2320
g465
F0.6716872178789216
ssg16
g1290
sg54
g1802
sg180
(dp2321
g465
F0.623180542372137
ssg182
(dp2322
g465
F0.8443488729210266
ssg186
(dp2323
g465
F0.6455022070912819
ssg188
(dp2324
g465
F0.6947325835130477
ssg50
g1578
sg192
(dp2325
g465
F0.7297164142206428
ssg194
(dp2326
g465
F0.6250093169247455
ssg200
(dp2327
g465
F0.7285390857877877
ssg202
(dp2328
g465
F0.7478073855068653
ssg276
g1245
sg370
(dp2329
g465
F0.7127988808935426
ssg316
(dp2330
g465
F0.7237819613133984
ssg412
(dp2331
g465
F0.6833999177996306
ssg414
(dp2332
g465
F0.6225174244257432
ssg112
(dp2333
g465
F0.6006367786563006
ssg78
g2021
sg118
(dp2334
g465
F0.6669759050740026
ssg120
(dp2335
g465
F0.7104284136008732
ssg122
(dp2336
g465
F1.0368646466558966
ssg228
(dp2337
g465
F0.7537539448571456
ssg232
(dp2338
g465
F0.7264521905075161
ssg278
g1390
sg280
g1421
sg282
g1454
sg436
(dp2339
g465
F0.7436135822229432
ssg356
(dp2340
g465
F0.9113777300964769
ssg284
g1634
sg286
g1667
sg86
(dp2341
g465
F0.6621071126958775
ssg154
g2309
sg406
(dp2342
g465
F0.616962656856734
sssg160
(dp2343
g432
(dp2344
g465
F0.6531586371690262
ssg342
(dp2345
g465
F0.6456061169063756
ssg344
(dp2346
g465
F0.6257559484924821
ssg114
(dp2347
g465
F0.7006052205970666
ssg424
(dp2348
g465
F0.6751379228774542
ssg264
(dp2349
g465
F0.6067654557119536
ssg266
g1103
sg272
g1174
sg162
(dp2350
g465
F0.8537203255216737
sssg162
(dp2351
g242
g505
sg8
g549
sg10
g595
sg250
g666
sg252
g718
sg254
g761
sg56
g1825
sg258
g1369
sg184
(dp2352
g465
F0.7848599381246338
ssg26
g883
sg28
g906
sg244
g1933
sg32
g960
sg34
g1009
sg264
(dp2353
g465
F0.7566655892620006
ssg266
g1104
sg272
g1175
sg358
g1911
sg40
(dp2354
g465
F0.6434989598338873
ssg204
(dp2355
g465
F0.6561433214251571
ssg306
(dp2356
g465
F0.9190978879449958
ssg308
(dp2357
g465
F0.628108414343753
ssg310
(dp2358
g465
F0.6414560627395873
ssg96
(dp2359
g465
F0.7360872417628812
ssg98
(dp2360
g465
F0.6112294105361433
ssg364
g1975
sg366
g2011
sg342
(dp2361
g465
F1.0890129514699498
ssg418
(dp2362
g465
F0.6250065763017513
ssg114
(dp2363
g465
F0.7430596760162522
ssg116
(dp2364
g465
F0.7403400650335006
ssg424
(dp2365
g465
F0.6567322894144818
ssg426
(dp2366
g465
F0.8528613735179815
ssg368
g2061
sg246
g1099
sg124
(dp2367
g465
F0.6024147660551561
ssg22
g807
sg382
(dp2368
g465
F0.7475994805339679
ssg238
(dp2369
g465
F0.7746750624636604
ssg390
(dp2370
g465
F0.679028957956226
ssg360
(dp2371
g465
F0.6314276044115339
ssg100
(dp2372
g465
F0.6702318007436117
ssg432
(dp2373
g465
F1.0358417298607314
ssg434
(dp2374
g465
F0.6541548295071896
ssg362
g1949
sg298
(dp2375
g465
F0.7421186821380297
ssg448
(dp2376
g465
F0.6325109811864844
ssg344
(dp2377
g465
F1.1423803562860533
ssg160
g2350
ssg80
(dp2378
g168
(dp2379
g465
F0.7984399773601802
ssg16
g1299
sg46
g1493
sg350
(dp2380
g465
F0.6659831939787358
ssg50
g1584
sg190
(dp2381
g465
F0.6340251382982698
ssg284
g1638
sg276
g1236
sg312
(dp2382
g465
F0.6139663537643577
ssg410
(dp2383
g465
F0.8324198764534446
ssg414
(dp2384
g465
F0.6759237893522568
ssg228
(dp2385
g465
F0.6365948794757949
ssg322
g2168
sg152
g2183
sg396
(dp2386
g465
F0.6453815650285702
ssg398
(dp2387
g465
F0.6176703032229545
ssg70
g1954
sg72
g1982
sg144
g2038
sg148
(dp2388
g465
F0.6335647396262274
ssg150
g2113
sg236
(dp2389
g465
F0.6682141869882909
ssg156
(dp2390
g465
F0.8223320239958936
ssg158
(dp2391
g465
F0.651165473484402
sssg164
(dp2392
sg110
(dp2393
g440
(dp2394
g465
F0.7172613918781543
sssg112
(dp2395
g294
(dp2396
g465
F0.6138652553714002
ssg176
(dp2397
g465
F0.8770779660690979
ssg182
(dp2398
g465
F0.6649597520361643
ssg48
g1545
sg354
(dp2399
g465
F0.6661331818563612
ssg356
(dp2400
g465
F0.7137776055699663
ssg194
(dp2401
g465
F0.7283029891471023
ssg274
g1197
sg370
(dp2402
g465
F0.6292050762824907
ssg316
(dp2403
g465
F0.6284976944012866
ssg284
g1628
sg412
(dp2404
g465
F0.6364172201948749
ssg286
g1656
sg422
(dp2405
g465
F0.7378203483955811
ssg278
g1385
sg280
g1412
sg282
g1450
sg128
(dp2406
g465
F0.8162412436310392
ssg138
g2333
sg334
g2244
sg192
(dp2407
g465
F0.6116247691794663
ssg140
g1530
sg142
g1601
sg88
(dp2408
g465
F0.613422787502362
ssg406
(dp2409
g465
F0.6182613268328004
sssg88
(dp2410
g294
(dp2411
g465
F0.7113436066423989
ssg296
g1767
sg176
(dp2412
g465
F0.6244341444709278
ssg54
g1808
sg46
g1481
sg354
(dp2413
g465
F0.8202937033807016
ssg356
(dp2414
g465
F0.6451243961258234
ssg194
(dp2415
g465
F0.7774540121427614
ssg274
g1210
sg276
g1218
sg316
(dp2416
g465
F0.8442533201803403
ssg284
g1639
sg412
(dp2417
g465
F0.7089531869398092
ssg210
(dp2418
g465
F0.7753576141798969
ssg112
g2408
sg234
(dp2419
g465
F0.7195286318441951
ssg278
g1397
sg282
g1460
sg380
(dp2420
g465
F0.600624203118563
ssg136
(dp2421
g465
F0.6836962153949794
ssg398
(dp2422
g465
F0.6409029778960038
ssg436
(dp2423
g465
F0.6419786417660925
ssg140
g1529
sg286
g1682
sg144
g2041
sg154
g2314
sg406
(dp2424
g465
F0.7253144926361057
ssg408
(dp2425
g465
F0.629708436092476
sssg220
(dp2426
g378
(dp2427
g465
F0.6704711887628512
ssg134
(dp2428
g465
F0.6310876361240569
ssg208
(dp2429
g465
F1.0653631032972533
ssg214
(dp2430
g465
F0.6222676237600743
ssg216
(dp2431
g465
F0.6946210359064273
ssg456
(dp2432
g465
F0.8494585122259736
ssg312
(dp2433
g465
F0.7301365393912199
ssg442
(dp2434
g465
F0.7696610924157026
ssg454
(dp2435
g465
F0.706544022442196
ssg94
(dp2436
g465
F0.661438888116104
sssg346
(dp2437
g166
(dp2438
g465
F0.9180659951628625
ssg246
g1074
sg348
(dp2439
g465
F0.6080300104688035
ssg438
(dp2440
g465
F0.6849955633150405
ssg452
(dp2441
g465
F0.6117747185540493
ssg404
(dp2442
g465
F0.8589502783818579
ssg360
(dp2443
g465
F0.6391048361640876
ssg364
g1964
sg206
(dp2444
g465
F0.6070422359969493
sssg348
(dp2445
g166
(dp2446
g465
F0.952502004169297
ssg244
g1915
sg246
g1075
sg170
(dp2447
g465
F0.9266335443271566
ssg346
g2439
ssg350
(dp2448
g168
(dp2449
g465
F1.1787629040043146
ssg170
(dp2450
g465
F0.8290407036432135
ssg382
(dp2451
g465
F0.6811082324941721
ssg388
(dp2452
g465
F0.6020238850651389
ssg28
g889
sg426
(dp2453
g465
F0.602567558756819
ssg80
g2380
sg300
(dp2454
g465
F0.803598889627885
ssg306
(dp2455
g465
F0.6161902874680227
sssg352
(dp2456
g108
(dp2457
g465
F0.7396010546067571
ssg296
g1751
sg14
g1272
sg18
g1309
sg38
g1727
sg24
g816
sg66
g1852
sg260
g1018
sg262
g1047
sg194
(dp2458
g465
F0.7770471390490867
ssg268
g1115
sg270
g1136
sg274
g1187
sg372
g2104
sg412
(dp2459
g465
F0.7176600083099809
ssg106
(dp2460
g465
F0.6302769582516317
ssg240
(dp2461
g465
F0.6129920147174124
ssg416
(dp2462
g465
F0.7081587787609358
ssg54
g1787
sg226
(dp2463
g465
F0.7255360710065482
ssg234
(dp2464
g465
F0.7481796895950213
ssg322
g2156
sg380
(dp2465
g465
F0.6447892264889253
ssg236
(dp2466
g465
F0.8212526360611867
ssg334
g2239
sg396
(dp2467
g465
F0.6057756827358965
ssg398
(dp2468
g465
F0.612988962513654
ssg286
g1648
sg72
g1981
sg148
(dp2469
g465
F0.813815632719708
ssg152
g2175
sg90
(dp2470
g465
F0.6601386558017213
ssg158
(dp2471
g465
F0.6031674853275318
ssg406
(dp2472
g465
F0.6382169716487249
ssg408
(dp2473
g465
F0.6242794010488248
sssg354
(dp2474
g282
g1441
sg176
(dp2475
g465
F0.747921733174796
ssg356
(dp2476
g465
F0.6411702440584783
ssg182
(dp2477
g465
F0.6089751275376507
ssg140
g1526
sg286
g1673
sg194
(dp2478
g465
F0.6450142250195706
ssg294
(dp2479
g465
F0.6295501886932653
ssg88
g2413
sg112
g2399
sg278
g1377
sg274
g1188
sg276
g1225
sg316
(dp2480
g465
F0.6488467127587273
sssg356
(dp2481
g294
(dp2482
g465
F0.7789673404627138
ssg16
g1296
sg54
g1789
sg180
(dp2483
g465
F0.7856025224051969
ssg182
(dp2484
g465
F1.2096284673520878
ssg186
(dp2485
g465
F0.8336953985100023
ssg28
g892
sg422
(dp2486
g465
F0.6904233628939326
ssg188
(dp2487
g465
F0.7378066926734939
ssg354
g2476
sg192
(dp2488
g465
F0.705748563108786
ssg194
(dp2489
g465
F0.6779098132372445
ssg200
(dp2490
g465
F0.6750559237793011
ssg202
(dp2491
g465
F0.6595448519948659
ssg274
g1189
sg276
g1226
sg370
(dp2492
g465
F0.8104220394132308
ssg316
(dp2493
g465
F0.7377347528118102
ssg284
g1623
sg176
(dp2494
g465
F0.6638630922615482
ssg286
g1677
sg112
g2400
sg78
g2015
sg120
(dp2495
g465
F0.6612497932809158
ssg122
(dp2496
g465
F0.6691893781752364
ssg232
(dp2497
g465
F0.6163555707888065
ssg278
g1393
sg280
g1403
sg282
g1456
sg128
(dp2498
g465
F0.6139572512640357
ssg138
g2340
sg388
(dp2499
g465
F0.7561667943371547
ssg412
(dp2500
g465
F0.619338711674724
ssg396
(dp2501
g465
F0.6390106307143485
ssg398
(dp2502
g465
F0.6322637939041678
ssg436
(dp2503
g465
F0.6778961768202612
ssg140
g1522
sg142
g1609
sg86
(dp2504
g465
F0.7508330342824721
ssg88
g2414
sg154
g2316
ssg294
(dp2505
g286
g1642
sg296
g1749
sg54
g1785
sg182
(dp2506
g465
F0.7472768062839671
ssg46
g1479
sg188
(dp2507
g465
F0.6063346134244355
ssg354
g2479
sg356
g2482
sg194
(dp2508
g465
F0.7637651427586065
ssg58
g1827
sg274
g1180
sg276
g1216
sg370
(dp2509
g465
F1.0300021713139937
ssg316
(dp2510
g465
F0.7370400948119203
ssg284
g1618
sg412
(dp2511
g465
F0.7205894583747606
ssg210
(dp2512
g465
F1.170819325073482
ssg112
g2396
sg78
g2013
sg118
(dp2513
g465
F0.7400331964242975
ssg234
(dp2514
g465
F0.6140545744985738
ssg278
g1371
sg282
g1432
sg380
(dp2515
g465
F0.6019010129801531
ssg138
g2320
sg396
(dp2516
g465
F0.696638899639217
ssg398
(dp2517
g465
F0.6783462830628386
ssg436
(dp2518
g465
F0.6657582884338588
ssg454
(dp2519
g465
F0.6372893922479845
ssg414
(dp2520
g465
F0.6118546130674595
ssg140
g1520
sg142
g1591
sg144
g2029
sg88
g2411
sg406
(dp2521
g465
F0.7614809470814942
ssg408
(dp2522
g465
F0.658472043387971
sssg300
(dp2523
g392
(dp2524
g465
F0.7599053487949435
ssg432
(dp2525
g465
F0.6548913594549438
ssg8
g520
sg390
(dp2526
g465
F0.6263068141777213
ssg382
(dp2527
g465
F0.9560949344118319
ssg16
g1285
sg402
(dp2528
g465
F0.6607073912911573
ssg388
(dp2529
g465
F0.7506644183932153
ssg44
g1470
sg28
g893
sg350
g2454
sg168
(dp2530
g465
F0.6979998899922337
ssg170
(dp2531
g465
F0.6974705011312954
ssg306
(dp2532
g465
F0.6730897094074025
sssg360
(dp2533
g242
g482
sg244
g1916
sg246
g1078
sg308
(dp2534
g465
F0.6111554425904023
ssg238
(dp2535
g465
F0.691968414691663
ssg344
(dp2536
g465
F0.6976050763762977
ssg346
g2443
sg10
g567
sg446
(dp2537
g465
F0.6400355345017913
ssg448
(dp2538
g465
F0.6081852963435489
ssg452
(dp2539
g465
F0.6368757922176501
ssg404
(dp2540
g465
F0.7144232311018288
ssg204
(dp2541
g465
F0.6097583118465004
ssg364
g1972
sg162
g2371
sg368
g2050
ssg304
(dp2542
g430
(dp2543
g465
F0.618981628732942
ssg246
g1082
sg332
g2214
sg368
g2051
sg358
g1887
sg10
g568
sg446
(dp2544
g465
F0.9417183068025295
ssg450
(dp2545
g465
F0.7597619882882072
ssg404
(dp2546
g465
F0.6346272369307675
ssg204
(dp2547
g465
F0.6173218616461121
ssg364
g1973
sg308
(dp2548
g465
F0.6698695128386837
ssg310
(dp2549
g465
F0.7216873965208448
ssg434
(dp2550
g465
F0.6466075114072382
sssg306
(dp2551
g126
(dp2552
g465
F0.6957012526361552
ssg242
g484
sg8
g527
sg10
g569
sg248
g610
sg250
g642
sg252
g683
sg254
g733
sg20
g1320
sg22
g783
sg184
(dp2553
g465
F0.7937930702148208
ssg26
g841
sg28
g894
sg66
g1854
sg32
g941
sg34
g972
sg300
g2532
sg244
g1923
sg264
(dp2554
g465
F0.6628470648115727
ssg40
(dp2555
g465
F0.671040027527551
ssg200
(dp2556
g465
F0.615164010756893
ssg202
(dp2557
g465
F0.6221063783254027
ssg358
g1888
sg172
(dp2558
g465
F0.6814295678048332
ssg204
(dp2559
g465
F0.6412174707135138
ssg308
(dp2560
g465
F0.60831599611115
ssg310
(dp2561
g465
F0.6772896763801586
ssg96
(dp2562
g465
F0.7319149739423302
ssg98
(dp2563
g465
F0.6360879734082765
ssg100
(dp2564
g465
F0.6671920595261759
ssg350
g2455
sg366
g1995
sg342
(dp2565
g465
F0.858816832825125
ssg344
(dp2566
g465
F0.7909712298364217
ssg216
(dp2567
g465
F0.6139442322493553
ssg116
(dp2568
g465
F0.7534837945738629
ssg426
(dp2569
g465
F0.6450878666302159
ssg246
g1080
sg56
g1816
sg288
g1693
sg258
g1352
sg280
g1407
sg318
g2130
sg376
(dp2570
g465
F0.6124086360109926
ssg378
(dp2571
g465
F0.68910873556287
ssg374
(dp2572
g465
F0.6802982705619925
ssg382
(dp2573
g465
F0.8980822583137322
ssg384
(dp2574
g465
F0.6793307682192025
ssg238
(dp2575
g465
F0.6660975484529826
ssg336
g2252
sg390
(dp2576
g465
F0.7557859664946124
ssg334
g2221
sg170
(dp2577
g465
F0.6097371112014258
ssg338
g2271
sg30
g915
sg48
g1541
sg124
(dp2578
g465
F0.6356363602641371
ssg340
g2294
sg430
(dp2579
g465
F0.6594090718840269
ssg432
(dp2580
g465
F0.8273058011877439
ssg434
(dp2581
g465
F0.726577188034977
ssg298
(dp2582
g465
F0.70506322343683
ssg84
(dp2583
g465
F0.609730353347573
ssg86
(dp2584
g465
F0.6551210912628996
ssg162
g2356
sg420
(dp2585
g465
F0.6689441586571204
sssg308
(dp2586
g242
g485
sg244
g1919
sg10
g570
sg248
g611
sg250
g643
sg252
g684
sg22
g784
sg184
(dp2587
g465
F0.6760141545615009
ssg26
g842
sg32
g942
sg34
g973
sg246
g1081
sg40
(dp2588
g465
F0.629906809486021
ssg358
g1889
sg360
g2534
sg304
g2548
sg364
g1961
sg368
g2052
sg96
(dp2589
g465
F0.657969999070793
ssg306
g2560
sg342
(dp2590
g465
F0.7547025236891588
ssg344
(dp2591
g465
F0.7450494605516421
ssg116
(dp2592
g465
F0.7114123530800567
ssg310
(dp2593
g465
F0.9851511591176673
ssg258
g1353
sg238
(dp2594
g465
F1.0792780852619606
ssg390
(dp2595
g465
F0.6042680137459432
ssg430
(dp2596
g465
F0.7873917764212597
ssg434
(dp2597
g465
F0.9218789537777161
ssg298
(dp2598
g465
F0.6653983059072673
ssg446
(dp2599
g465
F0.7572124736639217
ssg448
(dp2600
g465
F0.7293875445008676
ssg162
g2357
sg204
(dp2601
g465
F1.0107460364919585
sssg310
(dp2602
g242
g486
sg244
g1927
sg10
g571
sg248
g612
sg250
g644
sg252
g685
sg256
g769
sg22
g785
sg184
(dp2603
g465
F0.6094100781824643
ssg26
g843
sg188
(dp2604
g465
F0.6854408027494988
ssg34
g974
sg246
g1090
sg200
(dp2605
g465
F0.6559153269243503
ssg202
(dp2606
g465
F0.6115007464168786
ssg358
g1890
sg304
g2549
sg306
g2561
sg308
g2593
sg204
(dp2607
g465
F0.9483579715870905
ssg96
(dp2608
g465
F0.6230932139303923
ssg364
g1976
sg342
(dp2609
g465
F0.6732234318539125
ssg344
(dp2610
g465
F0.6811898266061059
ssg116
(dp2611
g465
F0.6523312879267698
ssg368
g2053
sg40
(dp2612
g465
F0.6300096554949769
ssg280
g1408
sg448
(dp2613
g465
F0.679132053155138
ssg238
(dp2614
g465
F0.943731418291943
ssg390
(dp2615
g465
F0.6144916970094951
ssg430
(dp2616
g465
F0.8996902520215024
ssg434
(dp2617
g465
F1.0563779118168795
ssg258
g1354
sg446
(dp2618
g465
F0.8931592188319718
ssg86
(dp2619
g465
F0.6334307400514271
ssg162
g2358
ssg370
(dp2620
g294
g2509
sg54
g1791
sg180
(dp2621
g465
F0.6020368281041333
ssg182
(dp2622
g465
F0.7404602909212351
ssg186
(dp2623
g465
F0.6324536607090708
ssg188
(dp2624
g465
F0.9986004486512746
ssg192
(dp2625
g465
F0.6532592507291662
ssg194
(dp2626
g465
F0.6064295895648002
ssg200
(dp2627
g465
F0.6026427472528177
ssg274
g1192
sg276
g1228
sg284
g1625
sg210
(dp2628
g465
F0.62764368636331
ssg112
g2402
sg78
g2017
sg118
(dp2629
g465
F0.753686645372495
ssg120
(dp2630
g465
F0.8107024357723988
ssg232
(dp2631
g465
F0.6361358525909856
ssg286
g1650
sg278
g1381
sg280
g1409
sg282
g1445
sg134
(dp2632
g465
F0.6327432273817473
ssg138
g2329
sg388
(dp2633
g465
F0.6288311375808592
ssg436
(dp2634
g465
F0.6148937372768408
ssg356
g2492
sg140
g1531
sg142
g1597
sg86
(dp2635
g465
F0.9457076309858221
sssg316
(dp2636
g294
g2510
sg296
g1758
sg176
(dp2637
g465
F0.6103510558470341
ssg54
g1792
sg180
(dp2638
g465
F0.606114463419764
ssg182
(dp2639
g465
F0.8999895012187076
ssg46
g1488
sg260
g1025
sg356
g2493
sg194
(dp2640
g465
F0.7654241406300036
ssg274
g1193
sg276
g1229
sg284
g1626
sg412
(dp2641
g465
F0.7093579781525955
ssg210
(dp2642
g465
F0.7154091023728071
ssg416
(dp2643
g465
F0.6024569853564716
ssg112
g2403
sg78
g2018
sg122
(dp2644
g465
F0.6853341888713612
ssg38
g1729
sg234
(dp2645
g465
F0.6412542362224681
ssg278
g1382
sg282
g1446
sg138
g2330
sg354
g2480
sg396
(dp2646
g465
F0.672705764641489
ssg398
(dp2647
g465
F0.6031697389681769
ssg436
(dp2648
g465
F0.6407782676117544
ssg140
g1532
sg286
g1651
sg88
g2416
sg154
g2317
sg406
(dp2649
g465
F0.7290266654672811
ssg408
(dp2650
g465
F0.6275088464457498
sssg96
(dp2651
g126
(dp2652
g465
F0.6437593546650587
ssg242
g487
sg8
g529
sg10
g572
sg248
g613
sg250
g645
sg252
g686
sg254
g736
sg20
g1322
sg22
g786
sg184
(dp2653
g465
F1.0543659510345629
ssg26
g845
sg66
g1872
sg32
g944
sg34
g976
sg244
g1921
sg264
(dp2654
g465
F0.8001962543423257
ssg40
(dp2655
g465
F0.6886514077183293
ssg272
g1166
sg358
g1891
sg172
(dp2656
g465
F0.6889012396091254
ssg362
g1941
sg306
g2562
sg366
g1996
sg310
g2608
sg98
(dp2657
g465
F0.9690057043562476
ssg100
(dp2658
g465
F0.9462201687435894
ssg342
(dp2659
g465
F0.9817255534280295
ssg344
(dp2660
g465
F0.7983971072388166
ssg420
(dp2661
g465
F0.6056541199113433
ssg116
(dp2662
g465
F0.989728812924298
ssg222
(dp2663
g465
F0.6123876414608526
ssg246
g1083
sg56
g1818
sg258
g1355
sg374
(dp2664
g465
F0.674797928896878
ssg376
(dp2665
g465
F0.6664004119830849
ssg378
(dp2666
g465
F0.6594685112610028
ssg384
(dp2667
g465
F0.6775636087449974
ssg238
(dp2668
g465
F0.7033817257692262
ssg390
(dp2669
g465
F0.6605991954595338
ssg30
g918
sg48
g1542
sg430
(dp2670
g465
F0.6354248523406063
ssg124
(dp2671
g465
F0.787817801378184
ssg434
(dp2672
g465
F0.7533806200466548
ssg308
g2589
sg212
(dp2673
g465
F0.6158168720152887
ssg298
(dp2674
g465
F1.3046548643533669
ssg418
(dp2675
g465
F0.6707320959654368
ssg162
g2359
sg204
(dp2676
g465
F0.6486890479624806
sssg98
(dp2677
g242
g488
sg8
g530
sg10
g573
sg248
g614
sg250
g646
sg252
g687
sg254
g737
sg124
(dp2678
g465
F1.029202637316558
ssg22
g787
sg184
(dp2679
g465
F0.7078059367795222
ssg26
g846
sg66
g1856
sg32
g945
sg34
g977
sg244
g1922
sg264
(dp2680
g465
F0.7310787549390673
ssg358
g1892
sg172
(dp2681
g465
F0.6113020709330137
ssg204
(dp2682
g465
F0.6034686868668158
ssg306
g2563
sg366
g1997
sg96
g2657
sg100
(dp2683
g465
F0.6449520887101943
ssg342
(dp2684
g465
F0.7050709856576023
ssg344
(dp2685
g465
F0.7229753273886452
ssg116
(dp2686
g465
F0.7096196371443606
ssg246
g1084
sg258
g1356
sg238
(dp2687
g465
F0.6778739843566098
ssg390
(dp2688
g465
F0.6692220348094078
ssg170
(dp2689
g465
F0.6539532633473909
ssg30
g919
sg434
(dp2690
g465
F0.676365487642073
ssg298
(dp2691
g465
F0.8835220256999484
ssg288
g1696
sg162
g2360
ssg100
(dp2692
g126
(dp2693
g465
F0.6500773499578097
ssg242
g489
sg8
g531
sg10
g586
sg172
(dp2694
g465
F0.6249931617694321
ssg250
g647
sg252
g688
sg254
g738
sg56
g1819
sg258
g1357
sg184
(dp2695
g465
F0.8648308858063904
ssg26
g847
sg30
g920
sg32
g946
sg34
g978
sg264
(dp2696
g465
F0.7228780613438046
ssg40
(dp2697
g465
F0.6728038279102222
ssg272
g1167
sg358
g1904
sg362
g1942
sg306
g2564
sg366
g1998
sg204
(dp2698
g465
F0.624112765761396
ssg96
g2658
sg98
g2683
sg342
(dp2699
g465
F0.9175524008588023
ssg344
(dp2700
g465
F0.7268148219249452
ssg116
(dp2701
g465
F0.8773135007843278
ssg124
(dp2702
g465
F0.636822587034051
ssg22
g788
sg374
(dp2703
g465
F0.6303194213438331
ssg378
(dp2704
g465
F0.6384421851591623
ssg384
(dp2705
g465
F0.6076954829904361
ssg238
(dp2706
g465
F0.6126806983213207
ssg66
g1857
sg434
(dp2707
g465
F0.6615438694741336
ssg298
(dp2708
g465
F0.9849138382775616
ssg418
(dp2709
g465
F0.7088142624978299
ssg162
g2372
ssg102
(dp2710
sg104
(dp2711
g106
(dp2712
g465
F0.7244653744229284
sssg106
(dp2713
g262
g1052
sg108
(dp2714
g465
F0.9309294021934348
ssg104
g2712
sg352
g2460
ssg108
(dp2715
g322
g2167
sg396
(dp2716
g465
F0.694336974048319
ssg398
(dp2717
g465
F0.613607432348504
ssg106
g2714
sg16
g1287
sg286
g1678
sg38
g1731
sg236
(dp2718
g465
F0.6983967655320685
ssg352
g2457
sg260
g1035
sg262
g1041
sg194
(dp2719
g465
F0.603016718335248
ssg148
(dp2720
g465
F0.6264506966647643
ssg270
g1154
ssg342
(dp2721
g242
g491
sg8
g532
sg10
g576
sg248
g616
sg250
g649
sg252
g714
sg254
g758
sg56
g1820
sg22
g790
sg184
(dp2722
g465
F0.9711737672975705
ssg26
g877
sg28
g895
sg30
g921
sg32
g948
sg34
g1005
sg244
g1924
sg264
(dp2723
g465
F0.7903170339536276
ssg40
(dp2724
g465
F0.7716984339096269
ssg272
g1168
sg358
g1895
sg204
(dp2725
g465
F0.7307429746380628
ssg306
g2565
sg308
g2590
sg310
g2609
sg96
g2659
sg98
g2684
sg100
g2699
sg366
g1999
sg418
(dp2726
g465
F0.9700595017347519
ssg114
(dp2727
g465
F0.7588952858937776
ssg116
(dp2728
g465
F1.2369488419685313
ssg426
(dp2729
g465
F0.6284444246728214
ssg368
g2054
sg246
g1086
sg124
(dp2730
g465
F0.6382438905949834
ssg258
g1359
sg382
(dp2731
g465
F0.618207104446933
ssg238
(dp2732
g465
F0.8403973364324903
ssg390
(dp2733
g465
F0.7513583818739678
ssg338
g2272
sg430
(dp2734
g465
F0.6234026243214609
ssg432
(dp2735
g465
F0.6925412047240016
ssg434
(dp2736
g465
F0.7192875581401987
ssg362
g1943
sg298
(dp2737
g465
F0.9504261769332619
ssg448
(dp2738
g465
F0.6322907857911368
ssg344
(dp2739
g465
F1.1957393009090191
ssg160
g2345
sg162
g2361
ssg344
(dp2740
g242
g492
sg8
g533
sg10
g577
sg248
g617
sg250
g665
sg252
g717
sg254
g741
sg124
(dp2741
g465
F0.6813700826738668
ssg22
g806
sg184
(dp2742
g465
F0.7980855280788138
ssg26
g881
sg30
g922
sg32
g959
sg34
g1007
sg244
g1925
sg264
(dp2743
g465
F0.8059593523314744
ssg40
(dp2744
g465
F0.6676654875083984
ssg358
g1896
sg360
g2536
sg204
(dp2745
g465
F0.7154692674381797
ssg306
g2566
sg308
g2591
sg310
g2610
sg96
g2660
sg98
g2685
sg364
g1963
sg366
g2000
sg342
g2739
sg418
(dp2746
g465
F0.6106785339074984
ssg114
(dp2747
g465
F0.7063716684768729
ssg116
(dp2748
g465
F0.8200974636685422
ssg426
(dp2749
g465
F0.8564160242604149
ssg368
g2055
sg246
g1087
sg258
g1360
sg382
(dp2750
g465
F0.6392023321937691
ssg238
(dp2751
g465
F0.9307946005610637
ssg390
(dp2752
g465
F0.7285394627764572
ssg100
g2700
sg432
(dp2753
g465
F0.8294696211084991
ssg434
(dp2754
g465
F0.6884523098782155
ssg362
g1948
sg298
(dp2755
g465
F0.7991175268960516
ssg446
(dp2756
g465
F0.6163683562967867
ssg448
(dp2757
g465
F0.7375669324966742
ssg452
(dp2758
g465
F0.6235756703130448
ssg160
g2346
sg162
g2377
ssg114
(dp2759
g342
g2727
sg344
g2747
sg424
(dp2760
g465
F0.6530581587347503
ssg298
(dp2761
g465
F0.601824765296733
ssg160
g2347
sg162
g2363
ssg116
(dp2762
g242
g493
sg8
g534
sg10
g578
sg248
g618
sg250
g651
sg252
g693
sg254
g743
sg20
g1314
sg22
g792
sg184
(dp2763
g465
F0.9259550689282577
ssg26
g853
sg30
g923
sg32
g950
sg34
g984
sg244
g1926
sg264
(dp2764
g465
F0.6802403815294397
ssg40
(dp2765
g465
F0.7645465939895608
ssg200
(dp2766
g465
F0.6122588569919182
ssg358
g1897
sg172
(dp2767
g465
F0.6444528412930955
ssg362
g1945
sg306
g2568
sg366
g2001
sg310
g2611
sg96
g2662
sg98
g2686
sg100
g2701
sg342
g2728
sg344
g2748
sg56
g1822
sg258
g1361
sg374
(dp2768
g465
F0.6128444686316766
ssg376
(dp2769
g465
F0.657934457028372
ssg384
(dp2770
g465
F0.6413556314373833
ssg238
(dp2771
g465
F0.7096546788554532
ssg390
(dp2772
g465
F0.6504611710438465
ssg338
g2275
sg430
(dp2773
g465
F0.6273753555926552
ssg124
(dp2774
g465
F0.6098021037792807
ssg434
(dp2775
g465
F0.6914531133550083
ssg308
g2592
sg212
(dp2776
g465
F0.6056352578787839
ssg298
(dp2777
g465
F0.9518972152211228
ssg418
(dp2778
g465
F0.8954697285853193
ssg162
g2364
sg94
(dp2779
g465
F0.624131510090283
ssg204
(dp2780
g465
F0.6525644244572207
sssg118
(dp2781
g406
(dp2782
g465
F0.6189677638780828
ssg294
g2513
sg134
(dp2783
g465
F0.8843118562845375
ssg208
(dp2784
g465
F0.7048123495977352
ssg138
g2334
sg210
(dp2785
g465
F0.6194872086938114
ssg46
g1492
sg152
g2178
sg120
(dp2786
g465
F0.963060487201954
ssg142
g1603
sg86
(dp2787
g465
F0.6446838012488804
ssg232
(dp2788
g465
F0.680892733762934
ssg286
g1658
sg412
(dp2789
g465
F0.6810962163683906
ssg276
g1235
sg370
g2629
sg436
(dp2790
g465
F0.6616023161774726
sssg120
(dp2791
g168
(dp2792
g465
F0.6088290042712949
ssg134
(dp2793
g465
F0.7348712298680028
ssg200
(dp2794
g465
F0.6046514647158154
ssg356
g2495
sg138
g2335
sg118
g2786
sg188
(dp2795
g465
F0.8214349899398419
ssg192
(dp2796
g465
F0.6394016517916128
ssg142
g1604
sg86
(dp2797
g465
F0.8053360617691865
ssg232
(dp2798
g465
F0.9779886463787746
ssg202
(dp2799
g465
F0.6038350406335474
ssg280
g1414
sg370
g2630
sg436
(dp2800
g465
F0.6061585041761343
sssg122
(dp2801
g276
g1237
sg436
(dp2802
g465
F0.8370042767268112
ssg138
g2336
sg228
(dp2803
g465
F0.618331294693072
ssg182
(dp2804
g465
F0.7186870401971874
ssg192
(dp2805
g465
F0.7165471530534924
ssg356
g2496
sg200
(dp2806
g465
F0.7166375995287034
ssg202
(dp2807
g465
F0.6828944520025467
ssg412
(dp2808
g465
F0.6405981461562488
ssg280
g1415
sg282
g1452
sg316
g2644
ssg180
(dp2809
g434
(dp2810
g465
F0.6276670900791304
ssg138
g2321
sg182
(dp2811
g465
F0.8086223737772092
ssg332
g2207
sg186
(dp2812
g465
F0.9850939809486221
ssg188
(dp2813
g465
F0.6898407481276282
ssg192
(dp2814
g465
F0.7994000976186689
ssg356
g2483
sg86
(dp2815
g465
F0.6450836495513317
ssg200
(dp2816
g465
F0.8417300879736539
ssg202
(dp2817
g465
F0.7576863077524174
ssg278
g1373
sg280
g1400
sg282
g1436
sg370
g2621
sg316
g2638
ssg182
(dp2818
g294
g2506
sg16
g1282
sg54
g1784
sg180
g2811
sg186
(dp2819
g465
F0.8823361263359056
ssg422
(dp2820
g465
F0.6724596423339557
ssg188
(dp2821
g465
F0.6907848628865219
ssg354
g2477
sg356
g2484
sg194
(dp2822
g465
F0.6776109060051909
ssg200
(dp2823
g465
F0.6386522743673156
ssg202
(dp2824
g465
F0.6423147845678459
ssg274
g1185
sg276
g1222
sg370
g2622
sg316
g2639
sg284
g1621
sg176
(dp2825
g465
F0.6133328972810462
ssg286
g1646
sg112
g2398
sg78
g2014
sg122
g2804
sg278
g1374
sg280
g1401
sg282
g1437
sg128
(dp2826
g465
F0.6048778199180664
ssg138
g2322
sg388
(dp2827
g465
F0.6589772164773092
ssg412
(dp2828
g465
F0.6113144263808247
ssg396
(dp2829
g465
F0.6198292751336202
ssg436
(dp2830
g465
F0.6097243981090699
ssg192
(dp2831
g465
F0.6485712232397217
ssg140
g1524
sg142
g1593
sg86
(dp2832
g465
F0.6256661975570609
ssg154
g2311
sg406
(dp2833
g465
F0.6027959503552067
sssg374
(dp2834
g8
g538
sg218
(dp2835
g465
F0.8088914612961803
ssg172
(dp2836
g465
F1.2100063276914794
ssg250
g654
sg252
g701
sg254
g747
sg20
g1313
sg22
g795
sg184
(dp2837
g465
F0.6765494369579508
ssg26
g862
sg66
g1849
sg48
g1534
sg34
g989
sg306
g2572
sg366
g2002
sg174
(dp2838
g465
F0.6941871661577764
ssg96
g2664
sg100
g2703
sg212
(dp2839
g465
F0.8010108466887979
ssg214
(dp2840
g465
F0.7814178537939784
ssg216
(dp2841
g465
F1.0459345438142111
ssg116
g2768
sg222
(dp2842
g465
F0.8244469173086492
ssg224
g2084
sg288
g1687
sg126
(dp2843
g465
F0.9548674422974621
ssg442
(dp2844
g465
F0.8082162405053864
ssg444
(dp2845
g465
F0.7865526606575317
ssg318
g2139
sg376
(dp2846
g465
F1.1538378268402083
ssg378
(dp2847
g465
F1.2169568897311622
ssg134
(dp2848
g465
F0.6308932291083899
ssg384
(dp2849
g465
F1.3597381694008641
ssg386
(dp2850
g465
F0.7429085110986887
ssg334
g2216
sg336
g2248
sg338
g2265
sg340
g2290
sg420
(dp2851
g465
F0.9598989976300089
ssg298
(dp2852
g465
F0.6888811963624168
ssg84
(dp2853
g465
F0.790197899858996
ssg94
(dp2854
g465
F0.6775967531916629
sssg376
(dp2855
g374
g2846
sg218
(dp2856
g465
F0.8636352674186457
ssg172
(dp2857
g465
F1.0763915560993047
ssg250
g655
sg252
g699
sg254
g748
sg20
g1332
sg22
g796
sg184
(dp2858
g465
F0.6586499763173911
ssg26
g860
sg30
g926
sg32
g953
sg34
g987
sg306
g2570
sg366
g2003
sg174
(dp2859
g465
F0.712510342818799
ssg96
g2665
sg212
(dp2860
g465
F0.8232533234710588
ssg214
(dp2861
g465
F0.6918838083665861
ssg216
(dp2862
g465
F0.8394444331803947
ssg116
g2769
sg222
(dp2863
g465
F0.8289304195026027
ssg224
g2085
sg442
(dp2864
g465
F0.6717311558781847
ssg126
(dp2865
g465
F0.9978285898645138
ssg444
(dp2866
g465
F0.8069419414527127
ssg318
g2140
sg378
(dp2867
g465
F0.9275537225250575
ssg134
(dp2868
g465
F0.6208923631910989
ssg384
(dp2869
g465
F1.3581576503625765
ssg386
(dp2870
g465
F1.0394973873062239
ssg334
g2232
sg336
g2254
sg338
g2277
sg66
g1870
sg48
g1555
sg340
g2298
sg434
(dp2871
g465
F0.6007877820149616
ssg420
(dp2872
g465
F0.9991471394227597
ssg298
(dp2873
g465
F0.6868008900878428
ssg84
(dp2874
g465
F0.9157451278456894
ssg94
(dp2875
g465
F0.7523408483998598
sssg132
(dp2876
g44
g1472
sg232
(dp2877
g465
F0.7949944416801782
ssg288
g1703
ssg378
(dp2878
g374
g2847
sg8
g539
sg172
(dp2879
g465
F1.0168860570801184
ssg250
g656
sg252
g700
sg254
g749
sg20
g1333
sg22
g797
sg184
(dp2880
g465
F0.6830702437672143
ssg26
g861
sg66
g1875
sg48
g1556
sg34
g988
sg264
(dp2881
g465
F0.6411927421886089
ssg40
(dp2882
g465
F0.6444664121865793
ssg270
g1147
sg306
g2571
sg366
g2004
sg174
(dp2883
g465
F0.7752774948940251
ssg96
g2666
sg100
g2704
sg384
(dp2884
g465
F1.108460067500102
ssg212
(dp2885
g465
F0.6983304964478947
ssg214
(dp2886
g465
F0.6937294759157531
ssg216
(dp2887
g465
F0.8317993818859761
ssg218
(dp2888
g465
F0.6145864575342317
ssg220
g2427
sg222
(dp2889
g465
F0.7657202369286841
ssg130
(dp2890
g465
F0.6378130891149277
ssg124
(dp2891
g465
F0.6174512354249774
ssg288
g1704
sg126
(dp2892
g465
F0.8843367485349993
ssg442
(dp2893
g465
F0.8225219395005726
ssg444
(dp2894
g465
F0.6353495794445085
ssg318
g2141
sg376
g2867
sg134
(dp2895
g465
F0.6234758915104733
ssg328
g2198
sg386
(dp2896
g465
F0.6336589477886706
ssg334
g2233
sg336
g2255
sg338
g2278
sg340
g2299
sg420
(dp2897
g465
F0.8452743264874927
ssg312
(dp2898
g465
F0.6640155492272354
ssg298
(dp2899
g465
F0.6827713340610837
ssg84
(dp2900
g465
F0.7574142567023882
ssg94
(dp2901
g465
F0.72711964282604
sssg380
(dp2902
g294
g2515
sg296
g1759
sg174
(dp2903
g465
F0.6070431221104045
ssg52
g1773
sg54
g1801
sg38
g1734
sg58
g1828
sg24
g810
sg352
g2465
sg194
(dp2904
g465
F0.742321453515194
ssg270
g1148
sg274
g1201
sg276
g1243
sg412
(dp2905
g465
F0.644810484324095
ssg210
(dp2906
g465
F0.6930805312080666
ssg416
(dp2907
g465
F0.6581238006411971
ssg234
(dp2908
g465
F0.8552843875929134
ssg152
g2180
sg398
(dp2909
g465
F0.6085114173107629
ssg454
(dp2910
g465
F0.61869367291072
ssg456
(dp2911
g465
F0.6103642570564224
ssg286
g1665
sg146
g2070
sg88
g2420
sg406
(dp2912
g465
F0.6915922348540923
ssg408
(dp2913
g465
F0.634897851615589
ssg94
(dp2914
g465
F0.6133237771789815
sssg134
(dp2915
g374
g2848
sg172
(dp2916
g465
F0.6007288343427931
ssg20
g1334
sg118
g2783
sg222
(dp2917
g465
F0.7949678910081209
ssg192
(dp2918
g465
F0.6294302196785233
ssg370
g2632
sg208
(dp2919
g465
F0.8571075130464517
ssg212
(dp2920
g465
F0.69620397972284
ssg214
(dp2921
g465
F0.6918421748431988
ssg216
(dp2922
g465
F0.6586241440752508
ssg220
g2428
sg120
g2793
sg318
g2143
sg376
g2868
sg378
g2895
sg328
g2199
sg334
g2234
sg338
g2279
sg420
(dp2923
g465
F0.6017170110387576
ssg142
g1605
sg442
(dp2924
g465
F0.7481685203414775
ssg288
g1694
sg86
(dp2925
g465
F0.7464712597030299
ssg94
(dp2926
g465
F0.6950354441093068
sssg384
(dp2927
g374
g2849
sg218
(dp2928
g465
F0.8032706003825943
ssg172
(dp2929
g465
F1.2152608309201272
ssg250
g657
sg252
g702
sg254
g750
sg20
g1335
sg22
g798
sg184
(dp2930
g465
F0.6801365331847303
ssg26
g864
sg30
g927
sg32
g954
sg34
g991
sg306
g2574
sg366
g2005
sg174
(dp2931
g465
F0.690271695984683
ssg96
g2667
sg100
g2705
sg212
(dp2932
g465
F0.8437211640151686
ssg214
(dp2933
g465
F0.667481219639752
ssg216
(dp2934
g465
F0.853604005551137
ssg116
g2770
sg222
(dp2935
g465
F0.8342324577270717
ssg224
g2088
sg442
(dp2936
g465
F0.6341947916211047
ssg126
(dp2937
g465
F0.930454757425874
ssg444
(dp2938
g465
F0.7962183100957881
ssg318
g2144
sg376
g2869
sg378
g2884
sg386
(dp2939
g465
F0.7803069304886099
ssg334
g2223
sg336
g2256
sg338
g2280
sg66
g1871
sg48
g1557
sg340
g2300
sg434
(dp2940
g465
F0.6413299539369146
ssg420
(dp2941
g465
F0.9433024772651419
ssg298
(dp2942
g465
F0.6787017080381761
ssg84
(dp2943
g465
F0.8544976123963957
ssg94
(dp2944
g465
F0.6610531615768289
sssg386
(dp2945
g374
g2850
sg376
g2870
sg378
g2896
sg172
(dp2946
g465
F0.6847876978711279
ssg384
g2939
sg20
g1336
sg126
(dp2947
g465
F0.9155749628659743
ssg420
(dp2948
g465
F0.8957072975952912
ssg334
g2235
sg336
g2257
sg222
(dp2949
g465
F0.6038108007103802
ssg338
g2281
sg340
g2301
sg212
(dp2950
g465
F0.6028573001835219
ssg218
(dp2951
g465
F0.8569816631158573
ssg84
(dp2952
g465
F1.0096247948607626
ssg48
g1558
sg224
g2089
sg92
(dp2953
g465
F0.9514954397242205
ssg216
(dp2954
g465
F0.6239338544482504
ssg444
(dp2955
g465
F0.7603640093517405
sssg388
(dp2956
g392
(dp2957
g465
F0.6362677499697994
ssg432
(dp2958
g465
F0.694005503664256
ssg322
g2162
sg396
(dp2959
g465
F0.6120592714284612
ssg398
(dp2960
g465
F0.6454205520006542
ssg382
(dp2961
g465
F0.8860193367970842
ssg16
g1291
sg356
g2499
sg182
g2827
sg28
g899
sg350
g2452
sg188
(dp2962
g465
F0.6044260085469988
ssg284
g1635
sg286
g1668
sg86
(dp2963
g465
F0.6421188895725536
ssg168
(dp2964
g465
F0.6373327261120713
ssg300
g2529
sg280
g1422
sg370
g2633
ssg390
(dp2965
g242
g499
sg8
g542
sg10
g585
sg248
g623
sg250
g659
sg252
g704
sg254
g752
sg256
g764
sg22
g800
sg184
(dp2966
g465
F0.6716127466034287
ssg26
g866
sg30
g929
sg32
g956
sg34
g993
sg358
g1902
sg244
g1929
sg264
(dp2967
g465
F0.6471784178827401
ssg300
g2526
sg204
(dp2968
g465
F0.6173143492507982
ssg306
g2576
sg366
g2006
sg310
g2615
sg96
g2669
sg98
g2688
sg342
g2733
sg344
g2752
sg116
g2772
sg368
g2057
sg124
(dp2969
g465
F0.6285607243901831
ssg258
g1365
sg382
(dp2970
g465
F0.7633719680736798
ssg238
(dp2971
g465
F0.6927779533900846
ssg434
(dp2972
g465
F0.65070296890024
ssg308
g2595
sg298
(dp2973
g465
F0.6443910391975995
ssg448
(dp2974
g465
F0.606081310728141
ssg162
g2370
ssg392
(dp2975
g130
(dp2976
g465
F0.6424494124908607
ssg322
g2163
sg396
(dp2977
g465
F0.6012862312572738
ssg14
g1263
sg16
g1292
sg18
g1303
sg388
g2957
sg402
(dp2978
g465
F0.968527357053903
ssg394
g1476
sg262
g1059
sg300
g2524
sg156
(dp2979
g465
F0.6240243824903294
ssg372
g2102
ssg190
(dp2980
g406
(dp2981
g465
F0.6265065819877477
ssg396
(dp2982
g465
F0.6065749874906776
ssg412
(dp2983
g465
F0.7729389142071375
ssg18
g1304
sg72
g1980
sg54
g1788
sg46
g1486
sg50
g1570
sg260
g1019
sg286
g1671
sg80
g2381
sg194
(dp2984
g465
F0.6306644290590834
ssg148
(dp2985
g465
F0.75420662696799
ssg270
g1151
sg90
(dp2986
g465
F1.0740875392191265
ssg274
g1203
sg276
g1247
sg408
(dp2987
g465
F0.6306699194514649
ssg158
(dp2988
g465
F0.7365608489341717
sssg396
(dp2989
g294
g2516
sg296
g1760
sg16
g1294
sg18
g1306
sg38
g1738
sg182
g2829
sg46
g1498
sg352
g2467
sg260
g1034
sg262
g1061
sg194
(dp2990
g465
F0.7348518697124129
ssg268
g1108
sg270
g1152
sg274
g1204
sg276
g1248
sg316
g2646
sg412
(dp2991
g465
F0.65542541408779
ssg108
g2716
sg54
g1803
sg322
g2165
sg388
g2959
sg414
(dp2992
g465
F0.6137245561102327
ssg50
g1580
sg392
g2977
sg190
g2982
sg398
(dp2993
g465
F0.9108179531923282
ssg356
g2501
sg210
(dp2994
g465
F0.7021222106413613
ssg284
g1636
sg286
g1674
sg80
g2386
sg78
g2022
sg154
g2308
sg156
(dp2995
g465
F0.7529703941607857
ssg406
(dp2996
g465
F0.6328470725321194
sssg398
(dp2997
g294
g2517
sg296
g1761
sg16
g1295
sg54
g1804
sg38
g1739
sg46
g1499
sg352
g2468
sg262
g1062
sg194
(dp2998
g465
F0.6850755194402105
ssg268
g1122
sg274
g1205
sg276
g1249
sg316
g2647
sg108
g2717
sg78
g2023
sg144
g2036
sg372
g2105
sg322
g2166
sg380
g2909
sg388
g2960
sg50
g1581
sg396
g2993
sg356
g2502
sg210
(dp2999
g465
F0.7769546991218584
ssg284
g1637
sg286
g1675
sg80
g2387
sg88
g2422
sg154
g2315
sg156
(dp3000
g465
F0.620221865673842
ssg456
(dp3001
g465
F0.6045947627149404
sssg400
(dp3002
g230
(dp3003
g465
F0.8180071789045398
sssg402
(dp3004
g392
g2978
sg394
g1477
sg14
g1270
sg18
g1308
sg426
(dp3005
g465
F0.6026631587004281
ssg300
g2528
sg130
(dp3006
g465
F0.6047318613842229
sssg404
(dp3007
g432
(dp3008
g465
F0.6050656336057522
ssg246
g1077
sg14
g1275
sg346
g2442
sg426
(dp3009
g465
F0.7056107292655585
ssg438
(dp3010
g465
F0.8870215601199836
ssg196
g1518
sg450
(dp3011
g465
F0.7075200424197189
ssg452
(dp3012
g465
F0.9316335092092212
ssg360
g2540
sg304
g2546
sg364
g1971
sg206
(dp3013
g465
F0.8399131397164398
ssg368
g2049
sg446
(dp3014
g465
F0.7490575877903429
sssg312
(dp3015
g130
(dp3016
g465
F0.6278336219000322
ssg378
g2898
sg52
g1777
sg240
(dp3017
g465
F0.8162859718488543
ssg220
g2433
sg66
g1876
sg262
g1064
sg80
g2382
sg152
g2181
sg158
(dp3018
g465
F0.6890635567311856
sssg240
(dp3019
g236
(dp3020
g465
F0.6278561711239798
ssg152
g2182
sg52
g1774
sg208
(dp3021
g465
F0.6100078907835138
ssg38
g1737
sg58
g1832
sg24
g817
sg352
g2461
sg312
g3017
sg262
g1065
sg146
g2077
sg150
g2112
sg270
g1155
sg40
(dp3022
g465
F0.631458886128302
ssg158
(dp3023
g465
F0.7009707935556281
sssg298
(dp3024
g126
(dp3025
g465
F0.6651121055795767
ssg242
g502
sg8
g547
sg10
g592
sg248
g625
sg250
g664
sg252
g715
sg254
g759
sg56
g1824
sg22
g805
sg184
(dp3026
g465
F1.0754728693150521
ssg26
g878
sg66
g1877
sg32
g958
sg34
g1006
sg244
g1931
sg264
(dp3027
g465
F0.8137317279701647
ssg40
(dp3028
g465
F0.7404079503661087
ssg272
g1171
sg358
g1908
sg172
(dp3029
g465
F0.7048274916075699
ssg362
g1947
sg306
g2582
sg366
g2009
sg204
(dp3030
g465
F0.6557028326841111
ssg96
g2674
sg98
g2691
sg100
g2708
sg342
g2737
sg344
g2755
sg114
g2761
sg116
g2777
sg222
(dp3031
g465
F0.6816374906916616
ssg246
g1095
sg124
(dp3032
g465
F0.8010158902435472
ssg444
(dp3033
g465
F0.608425675714676
ssg258
g1367
sg374
g2852
sg376
g2873
sg378
g2899
sg384
g2942
sg238
(dp3034
g465
F0.7276532522899763
ssg390
g2973
sg30
g932
sg434
(dp3035
g465
F0.6992114759496493
ssg308
g2598
sg420
(dp3036
g465
F0.6232975177244643
ssg212
(dp3037
g465
F0.6685727311082255
ssg288
g1708
sg418
(dp3038
g465
F0.6866009387812029
ssg162
g2375
sg216
(dp3039
g465
F0.6014870730936457
sssg84
(dp3040
g374
g2853
sg172
(dp3041
g465
F0.7218756800024855
ssg174
(dp3042
g465
F0.8267910313094975
ssg20
g1328
sg126
(dp3043
g465
F0.9206380718503543
ssg26
g855
sg48
g1564
sg306
g2583
sg216
(dp3044
g465
F0.6547436078352326
ssg218
(dp3045
g465
F0.6004245115147445
ssg318
g2151
sg376
g2874
sg378
g2900
sg384
g2943
sg386
g2952
sg334
g2242
sg336
g2261
sg338
g2286
sg340
g2303
sg94
(dp3046
g465
F0.8357418591656228
ssg92
(dp3047
g465
F0.9662109189204284
ssg420
(dp3048
g465
F0.8750138365257856
sssg148
(dp3049
g54
g1807
sg58
g1835
sg24
g819
sg46
g1506
sg352
g2469
sg190
g2985
sg262
g1066
sg194
(dp3050
g465
F0.7201364536716467
ssg270
g1157
sg276
g1255
sg410
(dp3051
g465
F0.6917863172668681
ssg412
(dp3052
g465
F0.9624325838075047
ssg108
g2720
sg416
(dp3053
g465
F0.6264328720057025
ssg78
g2025
sg80
g2388
sg72
g1983
sg226
(dp3054
g465
F0.8300083022030917
ssg236
(dp3055
g465
F1.034932011816155
ssg50
g1585
sg260
g1037
sg414
(dp3056
g465
F0.6110479745012463
ssg286
g1680
sg144
g2039
sg150
g2118
sg152
g2184
sg90
(dp3057
g465
F1.0315359027231554
ssg156
(dp3058
g465
F0.6149671993284556
ssg158
(dp3059
g465
F0.6522742505383121
ssg406
(dp3060
g465
F0.6739499157879925
ssg408
(dp3061
g465
F0.7096888181824982
sssg86
(dp3062
g242
g504
sg10
g594
sg180
g2815
sg182
g2832
sg26
g880
sg28
g905
sg188
(dp3063
g465
F0.9636831958488707
ssg192
(dp3064
g465
F0.6682560565156871
ssg200
(dp3065
g465
F0.6476201038917914
ssg202
(dp3066
g465
F0.6455457220752152
ssg358
g1910
sg306
g2584
sg310
g2619
sg370
g2635
sg382
(dp3067
g465
F0.6529992605365799
ssg118
g2787
sg120
g2797
sg232
(dp3068
g465
F0.730745911200413
ssg40
(dp3069
g465
F0.6145731682797893
ssg278
g1396
sg280
g1430
sg186
(dp3070
g465
F0.7190441478625567
ssg134
g2925
sg328
g2202
sg138
g2341
sg388
g2963
sg334
g2243
sg434
(dp3071
g465
F0.6570749694628364
ssg356
g2504
sg142
g1613
sg288
g1709
ssg236
(dp3072
g52
g1780
sg38
g1735
sg58
g1837
sg24
g821
sg46
g1496
sg352
g2466
sg262
g1058
sg194
(dp3073
g465
F0.6145812355089967
ssg270
g1149
sg276
g1244
sg410
(dp3074
g465
F0.6377813419986836
ssg412
(dp3075
g465
F0.6879371630523242
ssg108
g2718
sg416
(dp3076
g465
F0.6019576273782304
ssg80
g2389
sg72
g1984
sg226
(dp3077
g465
F0.8264577706366609
ssg240
g3020
sg50
g1587
sg286
g1666
sg144
g2035
sg148
g3055
sg150
g2116
sg152
g2185
sg90
(dp3078
g465
F0.683856167313293
ssg156
(dp3079
g465
F0.6481252618549002
ssg158
(dp3080
g465
F0.6617514049783743
ssg408
(dp3081
g465
F0.6353100614867755
sssg90
(dp3082
g352
g2470
sg190
g2986
sg406
(dp3083
g465
F0.6857788940708868
ssg236
g3078
sg54
g1809
sg72
g1985
sg78
g2026
sg46
g1497
sg50
g1579
sg260
g1038
sg286
g1661
sg144
g2042
sg194
(dp3084
g465
F0.7740828537022061
ssg148
g3057
sg414
(dp3085
g465
F0.6130526092720454
ssg270
g1160
sg274
g1202
sg276
g1246
sg408
(dp3086
g465
F0.6381575261034336
ssg226
(dp3087
g465
F0.6430622355726352
ssg412
(dp3088
g465
F1.0339406071799409
sssg156
(dp3089
g392
g2979
sg168
(dp3090
g465
F0.737523212222906
ssg396
g2995
sg398
g3000
sg16
g1301
sg144
g2043
sg50
g1589
sg228
(dp3091
g465
F0.6268967669720814
ssg80
g2390
sg148
g3058
sg150
g2120
sg236
g3079
sg410
(dp3092
g465
F0.7407924190226884
ssg276
g1259
ssg158
(dp3093
g70
g1958
sg190
g2988
sg14
g1276
sg52
g1782
sg18
g1310
sg240
g3023
sg236
g3080
sg46
g1510
sg152
g2186
sg352
g2471
sg312
g3018
sg262
g1068
sg80
g2391
sg148
g3059
sg150
g2121
sg270
g1161
sg72
g1987
sg372
g2106
ssg406
(dp3094
g294
g2521
sg296
g1769
sg54
g1810
sg38
g1745
sg182
g2833
sg46
g1511
sg352
g2472
sg260
g1039
sg192
(dp3095
g465
F0.6071004083589777
ssg194
(dp3096
g465
F1.177773751437881
ssg414
(dp3097
g465
F0.719315597105841
ssg270
g1162
sg274
g1212
sg276
g1260
sg316
g2649
sg412
(dp3098
g465
F1.0392732771329933
ssg286
g1684
sg416
(dp3099
g465
F0.9476846398329294
ssg112
g2409
sg78
g2027
sg118
g2782
sg226
(dp3100
g465
F0.8480151823848631
ssg234
(dp3101
g465
F0.9033536768662097
ssg278
g1398
sg282
g1461
sg380
g2912
sg152
g2187
sg138
g2342
sg190
g2981
sg396
g2996
sg436
(dp3102
g465
F0.7025830865012819
ssg210
(dp3103
g465
F0.7866277235391479
ssg142
g1614
sg144
g2044
sg146
g2080
sg148
g3060
sg150
g2122
sg88
g2424
sg90
g3083
sg408
(dp3104
g465
F1.095500163619677
sssg92
(dp3105
g218
(dp3106
g465
F0.6324176652372763
ssg174
(dp3107
g465
F0.6371796346626771
ssg386
g2953
sg20
g1344
sg126
(dp3108
g465
F0.8534577068121841
ssg420
(dp3109
g465
F0.7779100722068136
ssg334
g2245
sg336
g2262
sg338
g2287
sg340
g2304
sg84
g3047
sg48
g1565
sg224
g2097
sg94
(dp3110
g465
F0.6211919919410496
ssg444
(dp3111
g465
F0.6691174055494841
sssg94
(dp3112
g374
g2854
sg290
g1716
sg292
g1721
sg172
(dp3113
g465
F0.6014846303324388
ssg174
(dp3114
g465
F1.0766024120259072
ssg376
g2875
sg20
g1345
sg126
(dp3115
g465
F0.6685746647401163
ssg26
g884
sg34
g1010
sg192
(dp3116
g465
F0.6654394526138091
ssg208
(dp3117
g465
F0.7029025112879161
ssg420
(dp3118
g465
F0.6571279687046412
ssg116
g2779
sg220
g2436
sg146
g2082
sg234
(dp3119
g465
F0.7322342941173073
ssg318
g2152
sg320
(dp3120
g465
F0.732146860464713
ssg378
g2901
sg380
g2914
sg134
g2926
sg384
g2944
sg336
g2260
sg338
g2288
sg340
g2305
sg454
(dp3121
g465
F0.6775701180031604
ssg142
g1616
sg442
(dp3122
g465
F0.6514728116852336
ssg84
g3046
sg92
g3110
ssg166
(dp3123
g346
g2438
sg246
g1072
sg348
g2446
ssg168
(dp3124
g322
g2155
sg170
(dp3125
g465
F0.6544261722445497
ssg410
(dp3126
g465
F0.7839580879308565
ssg16
g1279
sg138
g2319
sg388
g2964
sg350
g2449
sg50
g1568
sg80
g2379
sg120
g2792
sg300
g2530
sg156
g3090
sg276
g1215
ssg170
(dp3127
g98
g2689
sg382
(dp3128
g465
F0.6505434407822777
ssg348
g2447
sg350
g2450
sg168
g3125
sg300
g2531
sg306
g2577
ssg172
(dp3129
g374
g2836
sg218
(dp3130
g465
F0.867007136734365
ssg250
g640
sg252
g681
sg254
g721
sg20
g1315
sg22
g781
sg184
(dp3131
g465
F0.6545863319789812
ssg26
g839
sg66
g1850
sg48
g1535
sg34
g970
sg306
g2558
sg366
g1994
sg174
(dp3132
g465
F0.6316481744509949
ssg96
g2656
sg98
g2681
sg100
g2694
sg212
(dp3133
g465
F0.9115277616658429
ssg214
(dp3134
g465
F0.8161427765224375
ssg216
(dp3135
g465
F1.1382895585119182
ssg116
g2767
sg222
(dp3136
g465
F0.9289276544004919
ssg224
g2087
sg288
g1688
sg126
(dp3137
g465
F0.9068620287572261
ssg442
(dp3138
g465
F0.6759267402575105
ssg444
(dp3139
g465
F0.77459065491298
ssg318
g2126
sg376
g2857
sg378
g2879
sg134
g2916
sg384
g2929
sg386
g2946
sg334
g2218
sg336
g2249
sg338
g2266
sg340
g2291
sg434
(dp3140
g465
F0.6008223768767894
ssg420
(dp3141
g465
F0.8803494215637491
ssg298
g3029
sg84
g3041
sg94
g3113
ssg174
(dp3142
g374
g2838
sg292
g1720
sg172
g3132
sg376
g2859
sg20
g1316
sg126
(dp3143
g465
F0.7823177644523505
ssg26
g844
sg66
g1851
sg48
g1536
sg34
g975
sg192
(dp3144
g465
F0.6174191459718997
ssg194
(dp3145
g465
F0.6010825590310044
ssg384
g2931
sg420
(dp3146
g465
F0.7881293082548725
ssg146
g2064
sg40
(dp3147
g465
F0.6241650014201752
ssg318
g2127
sg320
(dp3148
g465
F0.6608913210930707
ssg378
g2883
sg380
g2903
sg234
(dp3149
g465
F0.6439714915761016
ssg328
g2191
sg334
g2222
sg336
g2250
sg338
g2267
sg340
g2292
sg84
g3042
sg92
g3107
sg94
g3114
ssg176
(dp3150
g128
(dp3151
g465
F0.6917350196415059
ssg354
g2475
sg356
g2494
sg112
g2397
sg422
(dp3152
g465
F0.6938011156924252
ssg140
g1521
sg286
g1653
sg194
(dp3153
g465
F0.6035318365396584
ssg88
g2412
sg182
g2825
sg278
g1372
sg282
g1434
sg316
g2637
ssg130
(dp3154
g318
g2128
sg312
g3016
sg334
g2229
sg324
g2173
sg328
g2197
sg286
g1663
sg126
(dp3155
g465
F0.7003323581232854
ssg42
g1463
sg44
g1471
sg66
g1864
sg48
g1549
sg260
g1030
sg262
g1057
sg402
g3006
sg378
g2890
sg270
g1146
sg154
g2307
sg392
g2976
sg284
g1632
sg420
(dp3156
g465
F0.6908626842740695
sssg124
(dp3157
g126
(dp3158
g465
F0.61851246292019
ssg242
g495
sg8
g536
sg10
g588
sg250
g652
sg252
g708
sg254
g745
sg22
g802
sg184
(dp3159
g465
F0.7893211427340112
ssg26
g871
sg30
g924
sg32
g951
sg34
g999
sg264
(dp3160
g465
F0.9214179435235715
ssg362
g1946
sg306
g2578
sg366
g2007
sg204
(dp3161
g465
F0.6323563125877781
ssg96
g2671
sg98
g2678
sg100
g2702
sg342
g2730
sg344
g2741
sg116
g2774
sg258
g1363
sg378
g2891
sg328
g2192
sg238
(dp3162
g465
F0.6169149957475716
ssg390
g2969
sg66
g1866
sg434
(dp3163
g465
F0.6309762885848615
ssg298
g3032
sg288
g1689
sg162
g2367
ssg126
(dp3164
g374
g2843
sg8
g507
sg172
g3137
sg250
g628
sg252
g668
sg254
g720
sg20
g1329
sg22
g771
sg42
g1464
sg26
g825
sg28
g888
sg66
g1848
sg48
g1552
sg34
g962
sg194
(dp3165
g465
F0.6067712175099103
ssg306
g2552
sg366
g1990
sg174
g3143
sg96
g2652
sg100
g2693
sg384
g2937
sg212
(dp3166
g465
F0.7823644011034551
ssg214
(dp3167
g465
F0.652510419360869
ssg216
(dp3168
g465
F0.8404352968149462
ssg218
(dp3169
g465
F0.9182307291303539
ssg222
(dp3170
g465
F0.79486638725542
ssg130
g3155
sg224
g2091
sg56
g1813
sg288
g1701
sg40
(dp3171
g465
F0.6310074262475412
ssg442
(dp3172
g465
F0.64897038848261
ssg184
(dp3173
g465
F0.6574200923567531
ssg444
(dp3174
g465
F0.8748234943640703
ssg318
g2137
sg376
g2865
sg378
g2892
sg328
g2193
sg386
g2947
sg334
g2231
sg336
g2251
sg338
g2268
sg340
g2293
sg124
g3158
sg434
(dp3175
g465
F0.6165742100578092
ssg420
(dp3176
g465
F1.2866920414241316
ssg298
g3025
sg84
g3043
sg92
g3108
sg94
g3115
ssg184
(dp3177
g126
g3173
sg242
g473
sg8
g514
sg10
g558
sg248
g604
sg250
g633
sg252
g673
sg254
g724
sg20
g1317
sg22
g774
sg26
g827
sg30
g909
sg32
g935
sg34
g964
sg244
g1914
sg264
(dp3178
g465
F0.7873048075554894
ssg40
(dp3179
g465
F0.6979219003297743
ssg272
g1170
sg358
g1882
sg172
g3131
sg362
g1938
sg306
g2553
sg366
g1991
sg310
g2603
sg96
g2653
sg98
g2679
sg100
g2695
sg342
g2722
sg344
g2742
sg420
(dp3180
g465
F0.6348991014553899
ssg116
g2763
sg56
g1814
sg258
g1347
sg374
g2837
sg376
g2858
sg378
g2880
sg384
g2930
sg238
(dp3181
g465
F0.70138409247178
ssg390
g2966
sg48
g1553
sg430
(dp3182
g465
F0.6090987242225661
ssg124
g3159
sg434
(dp3183
g465
F0.6837322677850026
ssg308
g2587
sg212
(dp3184
g465
F0.6189199081704239
ssg298
g3026
sg418
(dp3185
g465
F0.672223071737908
ssg162
g2352
sg204
(dp3186
g465
F0.6635620676935944
sssg186
(dp3187
g430
(dp3188
g465
F0.6213113514613039
ssg10
g583
sg138
g2323
sg180
g2812
sg182
g2819
sg332
g2208
sg26
g828
sg188
(dp3189
g465
F0.7821052723083814
ssg192
(dp3190
g465
F0.7158460485790714
ssg356
g2485
sg434
(dp3191
g465
F0.666019034599722
ssg86
g3070
sg200
(dp3192
g465
F0.8227508491124508
ssg202
(dp3193
g465
F0.8207606250854874
ssg278
g1375
sg280
g1419
sg282
g1438
sg370
g2623
ssg136
(dp3194
g88
g2421
ssg422
(dp3195
g284
g1622
sg176
g3152
sg286
g1647
sg112
g2405
sg334
g2227
sg140
g1525
sg142
g1602
sg194
(dp3196
g465
F0.6552208976517808
ssg182
g2820
sg278
g1386
sg280
g1413
sg282
g1451
sg356
g2486
ssg188
(dp3197
g10
g587
sg180
g2813
sg182
g2821
sg186
g3189
sg28
g901
sg192
(dp3198
g465
F0.711112279752136
ssg294
g2507
sg200
(dp3199
g465
F0.7106669639757607
ssg202
(dp3200
g465
F0.7355327812044798
ssg358
g1905
sg310
g2604
sg370
g2624
sg120
g2795
sg232
(dp3201
g465
F0.713505184021348
ssg278
g1376
sg280
g1402
sg282
g1440
sg332
g2209
sg138
g2324
sg388
g2962
sg430
(dp3202
g465
F0.6196216945824942
ssg434
(dp3203
g465
F0.678529613268032
ssg356
g2487
sg142
g1594
sg86
g3063
ssg264
(dp3204
g8
g521
sg250
g638
sg252
g678
sg254
g729
sg124
g3160
sg258
g1349
sg184
g3178
sg26
g879
sg30
g912
sg32
g937
sg34
g966
sg266
g1102
sg272
g1172
sg362
g1939
sg306
g2554
sg366
g1992
sg96
g2654
sg98
g2680
sg100
g2696
sg342
g2723
sg344
g2743
sg116
g2764
sg22
g779
sg378
g2881
sg382
(dp3205
g465
F0.6007264990087663
ssg390
g2967
sg66
g1878
sg298
g3027
sg288
g1692
sg160
g2349
sg162
g2353
ssg192
(dp3206
g174
g3144
sg180
g2814
sg182
g2831
sg186
g3190
sg188
g3198
sg356
g2488
sg194
(dp3207
g465
F0.6054424139853034
ssg200
(dp3208
g465
F0.9757733473439087
ssg202
(dp3209
g465
F0.7706420787613437
ssg370
g2625
sg112
g2407
sg120
g2796
sg122
g2805
sg232
(dp3210
g465
F0.6071415971877455
ssg234
(dp3211
g465
F0.6062555759298341
ssg278
g1378
sg280
g1427
sg282
g1442
sg134
g2918
sg138
g2325
sg332
g2210
sg338
g2269
sg430
(dp3212
g465
F0.6262402770625043
ssg434
(dp3213
g465
F0.6300848447533556
ssg436
(dp3214
g465
F0.9259413479702044
ssg140
g1523
sg142
g1595
sg86
g3064
sg406
g3095
sg94
g3116
ssg194
(dp3215
g294
g2508
sg296
g1752
sg174
g3145
sg16
g1284
sg54
g1790
sg38
g1728
sg126
g3165
sg46
g1487
sg66
g1853
sg48
g1539
sg352
g2458
sg260
g1021
sg262
g1048
sg268
g1119
sg270
g1137
sg274
g1190
sg276
g1227
sg370
g2626
sg316
g2640
sg284
g1624
sg176
g3153
sg286
g1649
sg416
(dp3216
g465
F0.7828903494636641
ssg112
g2401
sg78
g2016
sg226
(dp3217
g465
F0.8189784127292261
ssg182
g2822
sg278
g1379
sg282
g1443
sg90
g3084
sg128
(dp3218
g465
F0.6370278765474015
ssg322
g2157
sg380
g2904
sg210
(dp3219
g465
F0.7369482921629966
ssg138
g2326
sg334
g2220
sg234
(dp3220
g465
F0.8531829164765786
ssg414
(dp3221
g465
F0.7259841597711116
ssg190
g2984
sg422
g3196
sg412
(dp3222
g465
F1.1421734692112901
ssg236
g3073
sg354
g2478
sg396
g2990
sg398
g2998
sg436
(dp3223
g465
F0.656239288871546
ssg356
g2489
sg192
g3207
sg108
g2719
sg140
g1528
sg142
g1596
sg144
g2030
sg146
g2065
sg148
g3050
sg150
g2110
sg88
g2415
sg154
g2313
sg406
g3096
sg408
(dp3224
g465
F0.7741274004177015
sssg40
(dp3225
g8
g525
sg10
g564
sg250
g653
sg252
g697
sg254
g746
sg56
g1823
sg22
g794
sg184
g3179
sg26
g835
sg30
g925
sg32
g952
sg34
g967
sg270
g1132
sg358
g1884
sg204
(dp3226
g465
F0.6732969377578285
ssg306
g2555
sg366
g1993
sg310
g2612
sg174
g3147
sg96
g2655
sg100
g2697
sg52
g1775
sg342
g2724
sg344
g2744
sg54
g1786
sg38
g1733
sg416
(dp3227
g465
F0.6074009355764473
ssg126
g3171
sg318
g2129
sg378
g2882
sg334
g2219
sg66
g1868
sg48
g1537
sg308
g2588
sg240
g3022
sg298
g3028
sg288
g1690
sg86
g3069
sg116
g2765
sg162
g2354
ssg198
(dp3228
g416
(dp3229
g465
F0.8331340779188607
ssg408
(dp3230
g465
F0.6900027354130425
sssg200
(dp3231
g242
g480
sg10
g565
sg180
g2816
sg182
g2823
sg26
g836
sg188
g3199
sg34
g968
sg356
g2490
sg202
(dp3232
g465
F1.0482709109475694
ssg358
g1885
sg306
g2556
sg310
g2605
sg370
g2627
sg116
g2766
sg120
g2794
sg122
g2806
sg278
g1380
sg280
g1404
sg282
g1444
sg186
g3192
sg138
g2327
sg332
g2212
sg338
g2270
sg430
(dp3233
g465
F0.9193703197613798
ssg434
(dp3234
g465
F0.8111579207635417
ssg436
(dp3235
g465
F0.6663925011389918
ssg192
g3208
sg86
g3065
ssg202
(dp3236
g430
(dp3237
g465
F0.8567383392125577
ssg434
(dp3238
g465
F0.7598827704404626
ssg200
g3232
sg138
g2328
sg180
g2817
sg182
g2824
sg332
g2213
sg26
g837
sg120
g2799
sg122
g2807
sg192
g3209
sg356
g2491
sg232
(dp3239
g465
F0.6295006278094177
ssg86
g3066
sg188
g3200
sg358
g1886
sg280
g1405
sg306
g2557
sg186
g3193
sg310
g2606
ssg204
(dp3240
g242
g483
sg244
g1917
sg10
g596
sg248
g609
sg250
g641
sg252
g682
sg254
g732
sg124
g3161
sg22
g782
sg184
g3186
sg26
g885
sg30
g914
sg32
g940
sg34
g971
sg246
g1079
sg40
g3226
sg358
g1912
sg360
g2541
sg304
g2547
sg364
g1977
sg308
g2601
sg310
g2607
sg96
g2676
sg98
g2682
sg306
g2559
sg342
g2725
sg344
g2745
sg116
g2780
sg368
g2062
sg258
g1351
sg238
(dp3241
g465
F0.8778041972500447
ssg390
g2968
sg100
g2698
sg430
(dp3242
g465
F0.6706428036699015
ssg434
(dp3243
g465
F0.785852448855474
ssg298
g3030
sg446
(dp3244
g465
F0.8439984897192654
ssg448
(dp3245
g465
F0.8434176634642833
ssg162
g2355
ssg206
(dp3246
g432
(dp3247
g465
F0.6863235682513585
ssg14
g1266
sg346
g2444
sg426
(dp3248
g465
F0.7036660430000561
ssg438
(dp3249
g465
F0.9917435437690572
ssg452
(dp3250
g465
F0.9576966724084817
ssg404
g3013
sg364
g1974
ssg382
(dp3251
g432
(dp3252
g465
F0.7628976505851377
ssg8
g540
sg390
g2970
sg342
g2731
sg344
g2750
sg388
g2961
sg26
g863
sg28
g898
sg350
g2451
sg34
g990
sg300
g2527
sg170
g3128
sg264
g3205
sg86
g3067
sg288
g1705
sg358
g1900
sg306
g2573
sg162
g2368
ssg314
(dp3253
g440
(dp3254
g465
F0.6193621623476778
sssg410
(dp3255
g322
g2158
sg412
(dp3256
g465
F0.6199087237960345
ssg16
g1286
sg54
g1793
sg228
(dp3257
g465
F0.606427574711615
ssg414
(dp3258
g465
F0.6744645131776873
ssg168
g3126
sg50
g1571
sg286
g1652
sg80
g2383
sg148
g3051
sg236
g3074
sg156
g3092
sg72
g1986
sg276
g1230
ssg412
(dp3259
g294
g2511
sg296
g1754
sg54
g1794
sg38
g1730
sg58
g1829
sg46
g1489
sg352
g2459
sg260
g1026
sg356
g2500
sg194
g3222
sg268
g1110
sg270
g1141
sg274
g1194
sg276
g1231
sg316
g2641
sg410
g3256
sg286
g1672
sg416
(dp3260
g465
F0.6763966075010706
ssg112
g2404
sg78
g2019
sg118
g2789
sg122
g2808
sg226
(dp3261
g465
F1.0132093666822515
ssg182
g2828
sg282
g1448
sg322
g2159
sg380
g2905
sg152
g2176
sg138
g2331
sg334
g2240
sg234
(dp3262
g465
F0.7137767914404185
ssg414
(dp3263
g465
F0.7727274896633053
ssg50
g1572
sg236
g3075
sg190
g2983
sg396
g2991
sg436
(dp3264
g465
F0.6590732679153339
ssg210
(dp3265
g465
F0.6808707012492076
ssg142
g1598
sg144
g2031
sg148
g3052
sg150
g2111
sg88
g2417
sg90
g3088
sg406
g3098
sg408
(dp3266
g465
F0.7822824388122421
sssg208
(dp3267
g134
g2919
sg240
g3021
sg220
g2429
sg118
g2784
sg456
(dp3268
g465
F0.7946350709321983
ssg142
g1599
sg442
(dp3269
g465
F0.7478598156278886
ssg146
g2066
sg152
g2177
sg454
(dp3270
g465
F0.8672788135682965
ssg94
g3117
ssg414
(dp3271
g294
g2520
sg296
g1763
sg54
g1805
sg46
g1501
sg50
g1573
sg194
g3221
sg268
g1113
sg274
g1206
sg276
g1251
sg410
g3258
sg412
g3263
sg78
g2024
sg80
g2384
sg226
(dp3272
g465
F0.6205572754317008
ssg322
g2160
sg138
g2332
sg396
g2992
sg286
g1670
sg144
g2037
sg148
g3056
sg150
g2117
sg90
g3085
sg406
g3097
ssg212
(dp3273
g374
g2839
sg218
(dp3274
g465
F0.8519242472050358
ssg172
g3133
sg252
g690
sg254
g740
sg20
g1323
sg126
g3166
sg184
g3184
sg26
g850
sg66
g1859
sg48
g1544
sg34
g981
sg96
g2673
sg384
g2932
sg214
(dp3275
g465
F0.6833685066270739
ssg216
(dp3276
g465
F0.785776724082018
ssg116
g2776
sg222
(dp3277
g465
F1.0881951596079311
ssg224
g2090
sg444
(dp3278
g465
F0.818991726389071
ssg318
g2132
sg376
g2860
sg378
g2885
sg134
g2920
sg328
g2194
sg386
g2950
sg334
g2224
sg298
g3037
sg288
g1697
sg420
(dp3279
g465
F0.7802642695681057
sssg418
(dp3280
g96
g2675
sg100
g2709
sg250
g650
sg252
g691
sg56
g1821
sg22
g791
sg184
g3185
sg26
g851
sg32
g949
sg34
g982
sg342
g2726
sg298
g3038
sg366
g2010
sg272
g1169
sg116
g2778
sg362
g1944
sg162
g2362
sg344
g2746
ssg216
(dp3281
g374
g2841
sg172
g3135
sg20
g1325
sg126
g3168
sg66
g1861
sg48
g1546
sg306
g2567
sg442
(dp3282
g465
F0.8551578610233127
ssg212
g3276
sg214
(dp3283
g465
F1.1630495420085398
ssg420
(dp3284
g465
F0.8186684897420704
ssg218
(dp3285
g465
F0.8191228772409965
ssg220
g2431
sg222
(dp3286
g465
F0.9112694367299959
ssg224
g2092
sg288
g1699
sg444
(dp3287
g465
F0.7455574613272389
ssg318
g2134
sg376
g2862
sg378
g2887
sg134
g2922
sg384
g2934
sg386
g2954
sg334
g2226
sg336
g2253
sg338
g2274
sg340
g2295
sg298
g3039
sg84
g3044
ssg218
(dp3288
g374
g2835
sg376
g2856
sg378
g2888
sg172
g3130
sg384
g2928
sg386
g2951
sg20
g1326
sg126
g3169
sg216
g3285
sg334
g2217
sg66
g1862
sg48
g1547
sg340
g2296
sg212
g3274
sg84
g3045
sg214
(dp3289
g465
F0.7124224767024024
ssg222
(dp3290
g465
F0.8741053538453721
ssg224
g2086
sg92
g3106
sg420
(dp3291
g465
F0.8257958451759809
ssg444
(dp3292
g465
F0.9980504355741318
sssg424
(dp3293
g432
(dp3294
g465
F0.667202889104184
ssg114
g2760
sg426
(dp3295
g465
F0.614730438008656
ssg428
(dp3296
g465
F0.8064040590329086
ssg160
g2348
sg162
g2365
ssg222
(dp3297
g374
g2842
sg172
g3136
sg252
g694
sg254
g744
sg20
g1327
sg126
g3170
sg66
g1863
sg48
g1548
sg96
g2663
sg384
g2935
sg212
g3277
sg214
(dp3298
g465
F1.0448348490549175
ssg216
g3286
sg218
g3290
sg442
(dp3299
g465
F0.7329187315010199
ssg224
g2096
sg444
(dp3300
g465
F0.7809477493746797
ssg318
g2135
sg376
g2863
sg378
g2889
sg134
g2917
sg328
g2196
sg386
g2949
sg334
g2228
sg338
g2276
sg298
g3031
sg288
g1700
sg420
(dp3301
g465
F0.8035116133064009
sssg426
(dp3302
g432
(dp3303
g465
F1.1121962251663955
ssg8
g535
sg246
g1089
sg206
g3248
sg14
g1271
sg402
g3005
sg342
g2729
sg344
g2749
sg424
g3295
sg350
g2453
sg438
(dp3304
g465
F0.6209540513143283
ssg196
g1516
sg322
g2161
sg452
(dp3305
g465
F0.7410079521881713
ssg404
g3009
sg306
g2569
sg162
g2366
ssg428
(dp3306
g70
g1955
sg424
g3296
ssg226
(dp3307
g414
g3272
sg406
g3100
sg412
g3261
sg286
g1659
sg416
(dp3308
g465
F0.6526058070907771
ssg54
g1798
sg46
g1494
sg352
g2463
sg262
g1055
sg144
g2033
sg194
g3217
sg148
g3054
sg150
g2114
sg236
g3077
sg234
(dp3309
g465
F0.6235831118316791
ssg276
g1238
sg408
(dp3310
g465
F0.7848528103886216
ssg90
g3087
ssg228
(dp3311
g410
g3257
sg138
g2337
sg122
g2803
sg50
g1576
sg284
g1630
sg80
g2385
sg154
g2310
sg156
g3091
sg276
g1239
ssg230
(dp3312
g290
g1714
sg400
g3003
sg76
g2100
ssg232
(dp3313
g132
g2877
sg138
g2338
sg118
g2788
sg120
g2798
sg188
g3201
sg192
g3210
sg356
g2497
sg86
g3068
sg202
g3239
sg280
g1416
sg370
g2631
ssg234
(dp3314
g294
g2514
sg296
g1757
sg174
g3149
sg54
g1799
sg38
g1736
sg58
g1838
sg24
g822
sg46
g1495
sg352
g2464
sg262
g1056
sg194
g3220
sg270
g1145
sg274
g1199
sg276
g1240
sg316
g2645
sg412
g3262
sg210
(dp3315
g465
F0.7738254589344256
ssg416
(dp3316
g465
F0.9169396637155741
ssg226
g3309
sg278
g1387
sg282
g1453
sg380
g2908
sg152
g2179
sg436
(dp3317
g465
F0.6465426704934508
ssg192
g3211
sg454
(dp3318
g465
F0.7269592299154971
ssg456
(dp3319
g465
F0.6542212248670284
ssg286
g1660
sg144
g2034
sg146
g2068
sg150
g2115
sg88
g2419
sg406
g3101
sg408
(dp3320
g465
F0.8867291717468213
ssg94
g3119
ssg320
(dp3321
g318
g2138
sg290
g1712
sg292
g1718
sg324
g2170
sg174
g3148
sg146
g2069
sg94
g3120
ssg178
(dp3322
sg238
(dp3323
g242
g498
sg8
g541
sg10
g584
sg248
g622
sg250
g658
sg252
g703
sg254
g751
sg124
g3162
sg22
g799
sg184
g3181
sg26
g865
sg30
g928
sg32
g955
sg34
g992
sg244
g1928
sg246
g1091
sg358
g1901
sg360
g2535
sg204
g3241
sg364
g1962
sg308
g2594
sg310
g2614
sg96
g2668
sg98
g2687
sg306
g2575
sg342
g2732
sg344
g2751
sg116
g2771
sg368
g2056
sg258
g1364
sg390
g2971
sg100
g2706
sg430
(dp3324
g465
F0.6960844748438734
ssg434
(dp3325
g465
F0.8905039719739137
ssg298
g3034
sg446
(dp3326
g465
F0.7282248896172602
ssg448
(dp3327
g465
F0.7984708107487456
ssg162
g2369
ssg408
(dp3328
g294
g2522
sg296
g1770
sg54
g1811
sg38
g1746
sg58
g1839
sg24
g823
sg46
g1512
sg352
g2473
sg190
g2987
sg194
g3224
sg198
g3230
sg270
g1163
sg274
g1213
sg276
g1261
sg316
g2650
sg412
g3266
sg210
(dp3329
g465
F0.7352560781354809
ssg416
(dp3330
g465
F1.1630610946237756
ssg226
g3310
sg234
g3320
sg380
g2913
sg236
g3081
sg436
(dp3331
g465
F0.6089515260232979
ssg286
g1685
sg144
g2045
sg146
g2081
sg148
g3061
sg150
g2123
sg88
g2425
sg90
g3086
sg406
g3104
ssg440
(dp3332
g110
g2394
sg314
g3254
ssg452
(dp3333
g432
(dp3334
g465
F0.660284306413474
ssg246
g1098
sg14
g1274
sg344
g2758
sg346
g2441
sg426
g3305
sg438
(dp3335
g465
F0.7564536955095127
ssg446
(dp3336
g465
F0.6144950151041765
ssg448
(dp3337
g465
F0.7430766262768679
ssg404
g3012
sg360
g2539
sg364
g1970
sg206
g3250
ssg430
(dp3338
g242
g500
sg10
g589
sg250
g660
sg252
g709
sg184
g3182
sg26
g873
sg188
g3202
sg34
g1001
sg192
g3212
sg200
g3233
sg202
g3237
sg358
g1906
sg304
g2543
sg306
g2579
sg308
g2596
sg310
g2616
sg96
g2670
sg342
g2734
sg116
g2773
sg280
g1424
sg186
g3188
sg238
g3324
sg434
(dp3339
g465
F1.1263493299526228
ssg446
(dp3340
g465
F0.6174943015700044
ssg204
g3242
ssg432
(dp3341
g8
g545
sg10
g590
sg14
g1265
sg252
g710
sg26
g874
sg28
g902
sg34
g1002
sg404
g3008
sg246
g1092
sg266
g1101
sg300
g2525
sg306
g2580
sg206
g3247
sg342
g2735
sg344
g2753
sg424
g3294
sg426
g3303
sg322
g2164
sg382
g3252
sg388
g2958
sg434
(dp3342
g465
F0.6013776434038617
ssg438
(dp3343
g465
F0.6443207433679413
ssg452
g3334
sg196
g1514
sg160
g2344
sg162
g2373
ssg434
(dp3344
g126
g3175
sg242
g501
sg8
g546
sg10
g591
sg248
g624
sg250
g661
sg252
g711
sg254
g756
sg256
g767
sg22
g803
sg184
g3183
sg26
g875
sg28
g903
sg30
g930
sg32
g957
sg34
g1003
sg192
g3213
sg244
g1930
sg246
g1093
sg200
g3234
sg202
g3238
sg358
g1907
sg172
g3140
sg304
g2550
sg306
g2581
sg366
g2008
sg310
g2617
sg96
g2672
sg98
g2690
sg100
g2707
sg342
g2736
sg344
g2754
sg116
g2775
sg368
g2058
sg124
g3163
sg258
g1366
sg280
g1425
sg376
g2871
sg186
g3191
sg384
g2940
sg238
g3325
sg332
g2205
sg390
g2972
sg432
g3342
sg338
g2283
sg188
g3203
sg430
g3339
sg180
g2810
sg308
g2597
sg298
g3035
sg446
(dp3345
g465
F0.6976041021700576
ssg86
g3071
sg162
g2374
sg204
g3243
ssg436
(dp3346
g294
g2518
sg182
g2830
sg46
g1500
sg192
g3214
sg194
g3223
sg200
g3235
sg276
g1250
sg370
g2634
sg316
g2648
sg412
g3264
sg286
g1676
sg118
g2790
sg120
g2800
sg122
g2802
sg234
g3317
sg278
g1392
sg280
g1426
sg282
g1455
sg138
g2339
sg356
g2503
sg210
(dp3347
g465
F0.6073262395665259
ssg142
g1608
sg146
g2074
sg88
g2423
sg406
g3102
sg408
g3331
ssg210
(dp3348
g294
g2512
sg296
g1755
sg54
g1795
sg38
g1741
sg58
g1830
sg46
g1490
sg194
g3219
sg274
g1195
sg276
g1232
sg370
g2628
sg316
g2642
sg412
g3265
sg286
g1654
sg416
(dp3349
g465
F0.6368254933346712
ssg78
g2020
sg118
g2785
sg234
g3315
sg282
g1449
sg380
g2906
sg396
g2994
sg398
g2999
sg436
g3347
sg454
(dp3350
g465
F0.7536836205574169
ssg284
g1627
sg142
g1600
sg144
g2032
sg88
g2418
sg154
g2312
sg406
g3103
sg408
g3329
ssg456
(dp3351
g380
g2911
sg152
g2189
sg208
g3268
sg38
g1747
sg58
g1840
sg220
g2432
sg398
g3001
sg262
g1069
sg146
g2076
sg150
g2124
sg270
g1164
sg234
g3319
sg296
g1771
sg454
(dp3352
g465
F1.1183177294901256
ssg372
g2107
ssg438
(dp3353
g432
g3343
sg246
g1094
sg14
g1267
sg346
g2440
sg452
g3335
sg426
g3304
sg196
g1517
sg450
(dp3354
g465
F0.9544817316694268
ssg302
g1935
sg404
g3010
sg446
(dp3355
g465
F0.7405808201670752
ssg364
g1966
sg206
g3249
ssg416
(dp3356
g296
g1756
sg54
g1796
sg38
g1732
sg40
g3227
sg24
g813
sg46
g1491
sg352
g2462
sg260
g1028
sg262
g1054
sg194
g3216
sg198
g3229
sg270
g1143
sg274
g1196
sg276
g1233
sg316
g2643
sg412
g3260
sg210
g3349
sg226
g3308
sg234
g3316
sg380
g2907
sg286
g1655
sg146
g2067
sg148
g3053
sg236
g3076
sg406
g3099
sg408
g3330
ssg442
(dp3357
g374
g2844
sg172
g3138
sg20
g1342
sg126
g3172
sg66
g1855
sg384
g2936
sg208
g3269
sg214
(dp3358
g465
F0.9244736013445253
ssg216
g3282
sg220
g2434
sg222
g3299
sg318
g2150
sg376
g2864
sg378
g2893
sg134
g2924
sg328
g2201
sg334
g2241
sg338
g2285
sg94
g3122
sg288
g1695
sg454
(dp3359
g465
F0.6127374365904976
ssg420
(dp3360
g465
F0.6501158903340624
sssg444
(dp3361
g318
g2136
sg374
g2845
sg378
g2894
sg172
g3139
sg384
g2938
sg376
g2866
sg20
g1330
sg126
g3174
sg216
g3287
sg334
g2230
sg420
(dp3362
g465
F0.9255045806026116
ssg66
g1867
sg48
g1551
sg340
g2297
sg212
g3278
sg386
g2955
sg224
g2095
sg222
g3300
sg298
g3033
sg92
g3111
sg218
g3292
ssg446
(dp3363
g430
g3340
sg242
g503
sg246
g1096
sg238
g3326
sg344
g2756
sg332
g2211
sg368
g2059
sg438
g3355
sg358
g1909
sg10
g593
sg448
(dp3364
g465
F0.7639076951663929
ssg450
(dp3365
g465
F0.8652081485799179
ssg452
g3336
sg404
g3014
sg360
g2537
sg304
g2544
sg364
g1967
sg308
g2599
sg310
g2618
sg204
g3244
sg434
g3345
ssg448
(dp3366
g242
g497
sg244
g1932
sg10
g582
sg248
g626
sg308
g2600
sg238
g3327
sg342
g2738
sg258
g1368
sg390
g2974
sg26
g858
sg368
g2060
sg246
g1097
sg446
g3364
sg344
g2757
sg358
g1899
sg360
g2538
sg204
g3245
sg364
g1968
sg162
g2376
sg310
g2613
sg452
g3337
ssg450
(dp3367
g332
g2206
sg438
g3354
sg446
g3365
sg302
g1936
sg404
g3011
sg304
g2545
sg364
g1969
ssg214
(dp3368
g318
g2133
sg374
g2840
sg420
(dp3369
g465
F0.6805553826823726
ssg378
g2886
sg172
g3134
sg134
g2921
sg384
g2933
sg376
g2861
sg20
g1324
sg126
g3167
sg216
g3283
sg334
g2225
sg220
g2430
sg66
g1860
sg338
g2273
sg222
g3298
sg212
g3275
sg442
g3358
sg288
g1698
sg218
g3289
ssg128
(dp3370
g176
g3151
sg356
g2498
sg182
g2826
sg286
g1662
sg194
g3218
sg112
g2406
ssg454
(dp3371
g294
g2519
sg380
g2910
sg152
g2188
sg208
g3270
sg210
g3350
sg38
g1740
sg220
g2435
sg456
g3352
sg142
g1615
sg442
g3359
sg146
g2075
sg270
g1153
sg234
g3318
sg296
g1762
sg94
g3121
ssg420
(dp3372
g374
g2851
sg172
g3141
sg174
g3146
sg252
g692
sg254
g742
sg20
g1341
sg126
g3176
sg42
g1465
sg26
g852
sg28
g896
sg66
g1879
sg48
g1566
sg34
g983
sg306
g2585
sg96
g2661
sg384
g2941
sg212
g3279
sg214
g3369
sg216
g3284
sg218
g3291
sg222
g3301
sg130
g3156
sg224
g2098
sg288
g1710
sg442
g3360
sg184
g3180
sg444
g3362
sg318
g2149
sg376
g2872
sg378
g2897
sg134
g2923
sg328
g2195
sg386
g2948
sg334
g2246
sg336
g2263
sg338
g2284
sg340
g2302
sg298
g3036
sg84
g3048
sg92
g3109
sg94
g3118
sssS'graph'
p3373
(dp3374
S'name'
p3375
S'(())_with_int_labels'
p3376
ssS'adjlist_dict_factory'
p3377
g459
sS'adj'
p3378
g462
sb.