(dp0
I0
S''
p1
sI1
g1
sI2
g1
sI3
g1
sI4
g1
sI5
g1
sI6
g1
sI7
g1
sI8
g1
sI9
g1
sI10
g1
sI11
g1
sI12
g1
sI13
g1
sI14
g1
sI15
g1
sI16
g1
sI17
g1
sI18
g1
sI19
g1
sI20
g1
sI21
g1
sI22
g1
sI23
g1
sI24
g1
sI25
g1
sI26
g1
sI27
g1
sI28
g1
sI29
g1
sI30
g1
sI31
g1
sI32
g1
sI33
g1
sI34
g1
sI35
g1
sI36
g1
sI37
g1
sI38
g1
sI39
g1
sI40
g1
sI41
g1
sI42
g1
sI43
g1
sI44
g1
sI45
g1
sI46
g1
sI47
g1
sI48
g1
sI49
g1
sI50
g1
sI51
g1
sI52
g1
sI53
g1
sI54
g1
sI55
g1
sI56
g1
sI57
g1
sI58
g1
sI59
g1
sI60
g1
sI61
g1
sI62
g1
sI63
g1
sI64
g1
sI65
g1
sI66
g1
sI67
g1
sI68
g1
sI69
g1
sI70
g1
s.