(dp0
S'Emotion'
p1
(dp2
S'cpl'
p3
(lp4
F0.029122689843596603
asS'degree_cent'
p5
(dp6
S'Frontal_Inf_Tri_L'
p7
F1.0
sS'Frontal_Inf_Orb_R'
p8
F1.0
sS'Precentral_L'
p9
F0.9629629629629629
sS'Cingulum_Ant_L'
p10
F1.0
sS'Cingulum_Ant_R'
p11
F1.0
sS'Precentral_R'
p12
F1.0
sS'Frontal_Inf_Orb_L'
p13
F1.0
sS'Frontal_Inf_Tri_R'
p14
F1.0
sS'Frontal_Mid_Orb_R'
p15
F0.9629629629629629
sS'Frontal_Sup_L'
p16
F1.0
sS'Frontal_Sup_Orb_L'
p17
F0.9629629629629629
sS'Supp_Motor_Area_L'
p18
F1.0
sS'Rolandic_Oper_L'
p19
F0.8148148148148148
sS'Rectus_L'
p20
F1.0
sS'Rectus_R'
p21
F0.9259259259259258
sS'Rolandic_Oper_R'
p22
F0.9629629629629629
sS'Supp_Motor_Area_R'
p23
F1.0
sS'Frontal_Sup_Orb_R'
p24
F0.9629629629629629
sS'Frontal_Mid_L'
p25
F1.0
sS'Frontal_Mid_Orb_L'
p26
F1.0
sS'Frontal_Inf_Oper_L'
p27
F0.9629629629629629
sS'Frontal_Med_Orb_L'
p28
F1.0
sS'Frontal_Inf_Oper_R'
p29
F1.0
sS'Frontal_Med_Orb_R'
p30
F0.9629629629629629
sS'Frontal_Sup_Medial_L'
p31
F1.0
sS'Frontal_Mid_R'
p32
F1.0
sS'Frontal_Sup_R'
p33
F1.0
sS'Frontal_Sup_Medial_R'
p34
F1.0
ssS'topeigenvector_cent'
p35
(lp36
g32
ag26
ag27
ag22
ag13
ag15
ag17
ag24
ag12
ag18
ag33
ag16
asS'ccoeff'
p37
(dp38
g7
F0.30933513213045194
sg8
F0.2696508302985676
sg9
F0.35564334867099934
sg10
F0.29454089901682345
sg11
F0.2983331086891857
sg12
F0.37579484561657184
sg13
F0.35889118453915153
sg14
F0.3087416649357098
sg15
F0.36705970665016036
sg16
F0.4027215827988559
sg17
F0.3708794133642117
sg18
F0.36557026012383304
sg19
F0.3619034411603787
sg20
F0.32319342362010833
sg21
F0.3250395761889325
sg22
F0.3766008584787842
sg23
F0.27973181572903333
sg24
F0.37936197984797
sg25
F0.3237861161519147
sg26
F0.35408362054180725
sg27
F0.3728619238852968
sg28
F0.2995093802584747
sg29
F0.3183286465153525
sg30
F0.31034868570890034
sg31
F0.3322430715640287
sg32
F0.34573933089023723
sg33
F0.4035536757194395
sg34
F0.3397613777407679
ssS'topccoeff'
p39
(lp40
g9
ag13
ag19
ag18
ag15
ag17
ag27
ag12
ag22
ag24
ag16
ag33
asS'between_cent'
p41
(dp42
g7
F0.005698005698005698
sg8
F0.07407407407407408
sg9
F0.0
sg10
F0.019943019943019943
sg11
F0.03133903133903134
sg12
F0.0
sg13
F0.0
sg14
F0.002849002849002849
sg15
F0.0
sg16
F0.0
sg17
F0.0
sg18
F0.017094017094017096
sg19
F0.0
sg20
F0.0
sg21
F0.0
sg22
F0.0
sg23
F0.15954415954415954
sg24
F0.0
sg25
F0.002849002849002849
sg26
F0.0
sg27
F0.0
sg28
F0.022792022792022793
sg29
F0.0
sg30
F0.019943019943019943
sg31
F0.0
sg32
F0.0
sg33
F0.0
sg34
F0.008547008547008548
ssS'topbetween_cent'
p43
(lp44
g33
ag14
ag25
ag7
ag34
ag18
ag10
ag30
ag28
ag11
ag8
ag23
asS'degrees'
p45
(dp46
g7
F0.7674630377043106
sg8
F0.6099979933752525
sg9
F0.8999975144892967
sg10
F0.7049758003118622
sg11
F0.7362159037721573
sg12
F1.0607142350377319
sg13
F0.9669671331023169
sg14
F0.7541013806323481
sg15
F0.9662301777155317
sg16
F1.157287945574147
sg17
F0.9593704313478105
sg18
F1.0451285737784095
sg19
F0.8193493329112791
sg20
F0.8466312748570168
sg21
F0.7409701062703495
sg22
F0.9749065754749499
sg23
F0.6750647760154832
sg24
F1.0287328405329221
sg25
F0.8105964109431635
sg26
F0.9484070851453175
sg27
F0.9668543596078318
sg28
F0.7381504642102913
sg29
F0.793505816707004
sg30
F0.756445767053964
sg31
F0.8550292720702567
sg32
F0.9109729071519946
sg33
F1.1581418613725096
sg34
F0.882771528739282
ssS'eigenvector_cent'
p47
(dp48
g7
F0.16336252105997365
sg8
F0.12865788533660352
sg9
F0.19191586290153972
sg10
F0.1484256167038469
sg11
F0.15967088629420462
sg12
F0.22277948647375184
sg13
F0.20738504789884477
sg14
F0.15877181951751185
sg15
F0.2092801081730902
sg16
F0.2463201125838763
sg17
F0.20947321977449765
sg18
F0.22312800831497753
sg19
F0.173263556647324
sg20
F0.17855817125014456
sg21
F0.15807690542968056
sg22
F0.20631616177615422
sg23
F0.14502063315434285
sg24
F0.21933279391741445
sg25
F0.1720041060014956
sg26
F0.20091622578821608
sg27
F0.2057576257140529
sg28
F0.15466356106130763
sg29
F0.1693153051656451
sg30
F0.1627561729813793
sg31
F0.1818366370709524
sg32
F0.19676410483489915
sg33
F0.2424309018229125
sg34
F0.18947903743041078
ssS'topdegree_cent'
p49
(lp50
g16
ag18
ag20
ag23
ag25
ag26
ag28
ag29
ag31
ag32
ag33
ag34
asS'topdegrees'
p51
(lp52
g32
ag26
ag17
ag15
ag27
ag13
ag22
ag24
ag18
ag12
ag16
ag33
assS'Language'
p53
(dp54
g3
(lp55
F0.023301835794001507
asg5
(dp56
S'Frontal_Inf_Tri_L'
p57
F1.0
sS'Frontal_Inf_Orb_R'
p58
F1.0
sS'Precentral_L'
p59
F1.0
sS'Cingulum_Ant_L'
p60
F1.0
sS'Cingulum_Ant_R'
p61
F0.9629629629629629
sS'Precentral_R'
p62
F0.9629629629629629
sS'Frontal_Inf_Orb_L'
p63
F1.0
sS'Frontal_Inf_Tri_R'
p64
F1.0
sS'Frontal_Mid_Orb_R'
p65
F0.9629629629629629
sS'Frontal_Sup_L'
p66
F1.0
sS'Frontal_Sup_Orb_L'
p67
F0.8518518518518519
sS'Supp_Motor_Area_L'
p68
F1.0
sS'Rolandic_Oper_L'
p69
F0.7407407407407407
sS'Rectus_L'
p70
F0.9259259259259258
sS'Rectus_R'
p71
F0.9629629629629629
sS'Rolandic_Oper_R'
p72
F0.9259259259259258
sS'Supp_Motor_Area_R'
p73
F0.9629629629629629
sS'Frontal_Sup_Orb_R'
p74
F0.9259259259259258
sS'Frontal_Mid_L'
p75
F1.0
sS'Frontal_Mid_Orb_L'
p76
F0.9629629629629629
sS'Frontal_Inf_Oper_L'
p77
F0.9629629629629629
sS'Frontal_Med_Orb_L'
p78
F0.9259259259259258
sS'Frontal_Inf_Oper_R'
p79
F1.0
sS'Frontal_Med_Orb_R'
p80
F0.9259259259259258
sS'Frontal_Sup_Medial_L'
p81
F1.0
sS'Frontal_Mid_R'
p82
F1.0
sS'Frontal_Sup_R'
p83
F0.9629629629629629
sS'Frontal_Sup_Medial_R'
p84
F0.9629629629629629
ssS'topeigenvector_cent'
p85
(lp86
g67
ag81
ag80
ag71
ag63
ag61
ag82
ag74
ag66
ag65
ag84
ag83
asg37
(dp87
g57
F0.0875997942753019
sg58
F0.12402339652444748
sg59
F0.13654115606124975
sg60
F0.1484929322878112
sg61
F0.1736214992401276
sg62
F0.14215473709507406
sg63
F0.16267682594910285
sg64
F0.11949299658964785
sg65
F0.1725021693378267
sg66
F0.18765328976027568
sg67
F0.1674189861751494
sg68
F0.11703459311805375
sg69
F0.17622520915273135
sg70
F0.16375327746384985
sg71
F0.17243916416588104
sg72
F0.14338806340123494
sg73
F0.1108681259145059
sg74
F0.19161979866813844
sg75
F0.14595445314325772
sg76
F0.158212213025549
sg77
F0.09778192483342746
sg78
F0.14381409315490126
sg79
F0.14467930354853514
sg80
F0.16861302368524547
sg81
F0.1565102680442008
sg82
F0.18648241359217924
sg83
F0.2138671946829189
sg84
F0.19355555259813345
ssS'topccoeff'
p88
(lp89
g70
ag67
ag80
ag71
ag65
ag61
ag69
ag82
ag66
ag74
ag84
ag83
asg41
(dp90
g57
F0.3703703703703704
sg58
F0.0
sg59
F0.017094017094017096
sg60
F0.005698005698005698
sg61
F0.0
sg62
F0.002849002849002849
sg63
F0.0
sg64
F0.05128205128205129
sg65
F0.005698005698005698
sg66
F0.0
sg67
F0.0
sg68
F0.11111111111111112
sg69
F0.0
sg70
F0.0
sg71
F0.008547008547008548
sg72
F0.0
sg73
F0.014245014245014245
sg74
F0.0
sg75
F0.008547008547008548
sg76
F0.0
sg77
F0.150997150997151
sg78
F0.0
sg79
F0.0
sg80
F0.014245014245014245
sg81
F0.04843304843304844
sg82
F0.0
sg83
F0.0
sg84
F0.0
ssS'topbetween_cent'
p91
(lp92
g60
ag65
ag71
ag75
ag73
ag80
ag59
ag81
ag64
ag68
ag77
ag57
asg45
(dp93
g57
F0.5240262039415893
sg58
F0.8488924499504042
sg59
F0.9759925877542361
sg60
F1.139538753218271
sg61
F1.3821273398484797
sg62
F1.0892964814724553
sg63
F1.3479777080942508
sg64
F0.8362062237815696
sg65
F1.5008135079091283
sg66
F1.583410439126045
sg67
F1.1652568350434183
sg68
F0.8352461015601143
sg69
F1.1575588117195872
sg70
F1.155397506985486
sg71
F1.338744348780714
sg72
F0.9742106889031327
sg73
F0.7264862493357593
sg74
F1.503135410547135
sg75
F1.1003499810694968
sg76
F1.1312238820211618
sg77
F0.6075763811913727
sg78
F0.9608106825203365
sg79
F1.090871290033472
sg80
F1.2182129145523493
sg81
F1.2294684509111726
sg82
F1.5523098198283638
sg83
F1.984460627979054
sg84
F1.634565818398245
ssg47
(dp94
g57
F0.06868199104610263
sg58
F0.12488643830047683
sg59
F0.15509910155851514
sg60
F0.17865237392359887
sg61
F0.2241426195205754
sg62
F0.1684454249052139
sg63
F0.21624324842253315
sg64
F0.11798371364148194
sg65
F0.25245861914921847
sg66
F0.24479041578997437
sg67
F0.1858702273559723
sg68
F0.1220194344128858
sg69
F0.16721593082998032
sg70
F0.17672747105134046
sg71
F0.20546301606237738
sg72
F0.14487707092990892
sg73
F0.09896310423819424
sg74
F0.24311556738798087
sg75
F0.17328613798671666
sg76
F0.1803892847225569
sg77
F0.07677832035475787
sg78
F0.1371123370120905
sg79
F0.16196804856576205
sg80
F0.1994896217131642
sg81
F0.19855503603679028
sg82
F0.2409976370697996
sg83
F0.31800460161151123
sg84
F0.2609668756158615
ssS'topdegree_cent'
p95
(lp96
g57
ag58
ag59
ag60
ag63
ag64
ag66
ag68
ag75
ag79
ag81
ag82
asS'topdegrees'
p97
(lp98
g67
ag80
ag81
ag71
ag63
ag61
ag65
ag74
ag82
ag66
ag84
ag83
assS'Working Memory'
p99
(dp100
g3
(lp101
F0.04925718049722417
asg5
(dp102
S'Frontal_Inf_Tri_L'
p103
F0.9629629629629629
sS'Frontal_Inf_Orb_R'
p104
F0.9629629629629629
sS'Precentral_L'
p105
F0.9629629629629629
sS'Cingulum_Ant_L'
p106
F0.8888888888888888
sS'Cingulum_Ant_R'
p107
F0.8888888888888888
sS'Precentral_R'
p108
F0.9629629629629629
sS'Frontal_Inf_Orb_L'
p109
F0.8518518518518519
sS'Frontal_Inf_Tri_R'
p110
F0.9629629629629629
sS'Frontal_Mid_Orb_R'
p111
F0.8888888888888888
sS'Frontal_Sup_L'
p112
F0.9259259259259258
sS'Frontal_Sup_Orb_L'
p113
F0.8518518518518519
sS'Supp_Motor_Area_L'
p114
F1.0
sS'Rolandic_Oper_L'
p115
F0.25925925925925924
sS'Rectus_L'
p116
F0.8518518518518519
sS'Rectus_R'
p117
F0.4444444444444444
sS'Rolandic_Oper_R'
p118
F0.6666666666666666
sS'Supp_Motor_Area_R'
p119
F0.9629629629629629
sS'Frontal_Sup_Orb_R'
p120
F0.7407407407407407
sS'Frontal_Sup_R'
p121
F0.9629629629629629
sS'Frontal_Mid_Orb_L'
p122
F0.8888888888888888
sS'Frontal_Inf_Oper_L'
p123
F1.0
sS'Frontal_Med_Orb_L'
p124
F0.8888888888888888
sS'Frontal_Mid_R'
p125
F0.9629629629629629
sS'Frontal_Inf_Oper_R'
p126
F1.0
sS'Frontal_Med_Orb_R'
p127
F0.7777777777777777
sS'Frontal_Sup_Medial_L'
p128
F0.9629629629629629
sS'Frontal_Mid_L'
p129
F1.0
sS'Frontal_Sup_Medial_R'
p130
F0.8888888888888888
ssS'topeigenvector_cent'
p131
(lp132
g130
ag109
ag107
ag108
ag113
ag120
ag127
ag121
ag111
ag116
ag112
ag128
asg37
(dp133
g103
F0.09653735099406768
sg104
F0.10830630241396728
sg105
F0.10025633167120228
sg106
F0.1143195043839469
sg107
F0.1172856927905492
sg108
F0.1120753788081338
sg109
F0.1244787906097756
sg110
F0.08279718318079038
sg111
F0.13503375595794942
sg112
F0.13950594131408936
sg113
F0.12868027749391034
sg114
F0.08381815815977926
sg115
F0.22306394881203118
sg116
F0.11963588714256894
sg117
F0.13530058416361873
sg118
F0.13532849510994235
sg119
F0.10154342130909395
sg120
F0.13665407950669195
sg121
F0.1105013983093819
sg122
F0.11695815828083032
sg123
F0.08026645879873182
sg124
F0.09949585978443574
sg125
F0.09932502859708986
sg126
F0.08425987886709409
sg127
F0.14754242409345494
sg128
F0.14183746995121102
sg129
F0.10161016591542223
sg130
F0.11462995302940547
ssS'topccoeff'
p134
(lp135
g107
ag116
ag109
ag113
ag111
ag117
ag118
ag120
ag112
ag128
ag127
ag115
asg41
(dp136
g103
F0.011396011396011397
sg104
F0.0
sg105
F0.011396011396011397
sg106
F0.014245014245014245
sg107
F0.0
sg108
F0.0
sg109
F0.0
sg110
F0.15384615384615385
sg111
F0.0
sg112
F0.0
sg113
F0.005698005698005698
sg114
F0.1339031339031339
sg115
F0.0
sg116
F0.0
sg117
F0.0
sg118
F0.0
sg119
F0.08262108262108263
sg120
F0.008547008547008548
sg121
F0.005698005698005698
sg122
F0.0
sg123
F0.13675213675213677
sg124
F0.002849002849002849
sg125
F0.039886039886039885
sg126
F0.09116809116809117
sg127
F0.0
sg128
F0.002849002849002849
sg129
F0.002849002849002849
sg130
F0.002849002849002849
ssS'topbetween_cent'
p137
(lp138
g113
ag121
ag120
ag103
ag105
ag106
ag125
ag119
ag126
ag114
ag123
ag110
asg45
(dp139
g103
F1.4930492015962271
sg104
F1.7103384167578461
sg105
F1.5069083971870347
sg106
F1.6054415852862611
sg107
F1.8459021789017378
sg108
F1.8911127261095464
sg109
F1.7119964134994348
sg110
F1.284198807750573
sg111
F2.107186810276578
sg112
F2.4676802431810048
sg113
F1.8878936546200618
sg114
F1.3446812242506792
sg115
F1.2889822595704947
sg116
F1.8101630198667367
sg117
F1.1712085828874763
sg118
F1.5336864500022394
sg119
F1.5592594197266272
sg120
F1.8504408913394932
sg121
F1.9304390320521156
sg122
F1.6860110439905838
sg123
F1.1435644333865298
sg124
F1.2468505285822773
sg125
F1.5181437062857437
sg126
F1.482305404175613
sg127
F1.9801953449679508
sg128
F3.0488733027477863
sg129
F1.6807049973610075
sg130
F1.5805859131692224
ssg47
(dp140
g103
F0.154072469024142
sg104
F0.1793597110404385
sg105
F0.15391418143771907
sg106
F0.17493249998543936
sg107
F0.19822167664436963
sg108
F0.19869251868812432
sg109
F0.18262508848058853
sg110
F0.12807063189512133
sg111
F0.22336868817655445
sg112
F0.2822757112982219
sg113
F0.20520326932208335
sg114
F0.13897423768986733
sg115
F0.14581539916027123
sg116
F0.2317896965917664
sg117
F0.10254548396747418
sg118
F0.17437791921361895
sg119
F0.1698461937065211
sg120
F0.20726620662194126
sg121
F0.2164701335179998
sg122
F0.17800594202533668
sg123
F0.12094166931928808
sg124
F0.136336257386772
sg125
F0.16484148691261485
sg126
F0.14295472287964237
sg127
F0.20989666244950883
sg128
F0.34044764955097057
sg129
F0.17361531403459915
sg130
F0.1819062748612597
ssS'topdegree_cent'
p141
(lp142
g104
ag105
ag108
ag110
ag119
ag121
ag125
ag128
ag114
ag123
ag126
ag129
asS'topdegrees'
p143
(lp144
g104
ag109
ag116
ag107
ag120
ag113
ag108
ag121
ag127
ag111
ag112
ag128
assS'Attention'
p145
(dp146
g3
(lp147
F0.035372226224641715
asg5
(dp148
S'Frontal_Inf_Tri_L'
p149
F1.0
sS'Frontal_Inf_Orb_R'
p150
F0.9629629629629629
sS'Precentral_L'
p151
F1.0
sS'Cingulum_Ant_L'
p152
F1.0
sS'Cingulum_Ant_R'
p153
F0.9629629629629629
sS'Precentral_R'
p154
F0.9629629629629629
sS'Frontal_Inf_Orb_L'
p155
F0.8888888888888888
sS'Frontal_Inf_Tri_R'
p156
F0.9629629629629629
sS'Frontal_Mid_Orb_R'
p157
F1.0
sS'Frontal_Sup_L'
p158
F1.0
sS'Frontal_Sup_Orb_L'
p159
F0.8888888888888888
sS'Supp_Motor_Area_L'
p160
F0.9629629629629629
sS'Rolandic_Oper_L'
p161
F0.7407407407407407
sS'Rectus_L'
p162
F1.0
sS'Rectus_R'
p163
F0.8518518518518519
sS'Rolandic_Oper_R'
p164
F0.7777777777777777
sS'Supp_Motor_Area_R'
p165
F0.9629629629629629
sS'Frontal_Sup_Orb_R'
p166
F0.8888888888888888
sS'Frontal_Mid_L'
p167
F1.0
sS'Frontal_Mid_Orb_L'
p168
F0.7407407407407407
sS'Frontal_Inf_Oper_L'
p169
F0.9629629629629629
sS'Frontal_Med_Orb_L'
p170
F0.9629629629629629
sS'Frontal_Inf_Oper_R'
p171
F1.0
sS'Frontal_Med_Orb_R'
p172
F0.9259259259259258
sS'Frontal_Sup_Medial_L'
p173
F1.0
sS'Frontal_Mid_R'
p174
F1.0
sS'Frontal_Sup_R'
p175
F1.0
sS'Frontal_Sup_Medial_R'
p176
F0.9629629629629629
ssS'topeigenvector_cent'
p177
(lp178
g162
ag149
ag159
ag168
ag167
ag157
ag161
ag172
ag166
ag158
ag175
ag173
asg37
(dp179
g149
F0.2013176177292847
sg150
F0.19314500084312305
sg151
F0.17375395539569835
sg152
F0.18903519153563664
sg153
F0.18158697104639435
sg154
F0.1847707780877999
sg155
F0.19205412985340453
sg156
F0.20221928916399406
sg157
F0.21685931373089387
sg158
F0.24195893349685374
sg159
F0.22108198471116774
sg160
F0.19670385914613633
sg161
F0.28172454323257407
sg162
F0.18567813197891067
sg163
F0.20082760167705024
sg164
F0.23333160783663587
sg165
F0.1654602997561841
sg166
F0.27030833661146486
sg167
F0.20675856493035066
sg168
F0.25529056586318016
sg169
F0.16682290310452355
sg170
F0.1643540394942693
sg171
F0.1873650000422699
sg172
F0.25593052810322725
sg173
F0.25260767564733166
sg174
F0.1850235331792895
sg175
F0.25413169065976277
sg176
F0.18845164873977882
ssS'topccoeff'
p180
(lp181
g156
ag167
ag157
ag159
ag164
ag158
ag173
ag175
ag168
ag172
ag166
ag161
asg41
(dp182
g149
F0.0
sg150
F0.004273504273504274
sg151
F0.06552706552706553
sg152
F0.0
sg153
F0.008547008547008548
sg154
F0.008547008547008548
sg155
F0.005698005698005698
sg156
F0.019943019943019943
sg157
F0.0
sg158
F0.0
sg159
F0.002849002849002849
sg160
F0.05698005698005698
sg161
F0.0
sg162
F0.02849002849002849
sg163
F0.0
sg164
F0.0
sg165
F0.16524216524216526
sg166
F0.002849002849002849
sg167
F0.002849002849002849
sg168
F0.0
sg169
F0.07407407407407408
sg170
F0.009971509971509971
sg171
F0.019943019943019943
sg172
F0.0
sg173
F0.0
sg174
F0.022792022792022793
sg175
F0.0
sg176
F0.005698005698005698
ssS'topbetween_cent'
p183
(lp184
g176
ag153
ag154
ag170
ag156
ag171
ag174
ag162
ag160
ag151
ag169
ag165
asg45
(dp185
g149
F1.2212195852897418
sg150
F1.12013366145072
sg151
F1.0137819896453961
sg152
F1.0643748629276528
sg153
F0.97433058981761
sg154
F1.016950159855331
sg155
F0.9554125892418543
sg156
F1.1921179612718307
sg157
F1.3889419518504742
sg158
F1.711970573412846
sg159
F1.221825276018321
sg160
F1.180013747403558
sg161
F1.5161616921673504
sg162
F1.1454473038896793
sg163
F1.033586733278355
sg164
F1.157939403456707
sg165
F0.9123216604104863
sg166
F1.7904222779775631
sg167
F1.289632340776725
sg168
F1.2608039240514803
sg169
F0.8747133636751487
sg170
F0.810990810641503
sg171
F1.1569225954801186
sg172
F1.6829986987843024
sg173
F1.8680613231687904
sg174
F1.0588374492709556
sg175
F1.858091438258108
sg176
F1.032759567159687
ssg47
(dp186
g149
F0.1781082684009852
sg150
F0.16563124113374308
sg151
F0.14040896949756318
sg152
F0.15128825156295386
sg153
F0.1417872360645158
sg154
F0.1409158110118558
sg155
F0.1444916792526528
sg156
F0.1694966215866621
sg157
F0.21130751634991732
sg158
F0.2705035934317005
sg159
F0.1901583718802858
sg160
F0.17484610168177755
sg161
F0.23997434902255677
sg162
F0.1758257592134478
sg163
F0.15328965553008145
sg164
F0.1693321553798275
sg165
F0.12922216339039383
sg166
F0.2629703949368157
sg167
F0.19371431156559968
sg168
F0.19212929544847504
sg169
F0.12324494887707402
sg170
F0.11843464889352255
sg171
F0.16731738614379865
sg172
F0.2534552719535277
sg173
F0.2830998608313367
sg174
F0.1529158437831058
sg175
F0.2766432006306547
sg176
F0.14711718993243555
ssS'topdegree_cent'
p187
(lp188
g176
ag149
ag151
ag152
ag157
ag158
ag162
ag167
ag171
ag173
ag174
ag175
asS'topdegrees'
p189
(lp190
g156
ag149
ag159
ag168
ag167
ag157
ag161
ag172
ag158
ag166
ag175
ag173
assS'Rest'
p191
(dp192
g3
(lp193
F0.7647012066211522
asg5
(dp194
S'Frontal_Inf_Tri_L'
p195
F0.8148148148148148
sS'Frontal_Inf_Orb_R'
p196
F0.9259259259259258
sS'Precentral_L'
p197
F0.9629629629629629
sS'Cingulum_Ant_L'
p198
F0.8518518518518519
sS'Cingulum_Ant_R'
p199
F0.7037037037037037
sS'Precentral_R'
p200
F0.9629629629629629
sS'Frontal_Inf_Orb_L'
p201
F0.8148148148148148
sS'Frontal_Inf_Tri_R'
p202
F1.0
sS'Frontal_Mid_Orb_R'
p203
F0.7407407407407407
sS'Frontal_Sup_L'
p204
F1.0
sS'Frontal_Sup_Orb_L'
p205
F0.5555555555555556
sS'Supp_Motor_Area_L'
p206
F1.0
sS'Rolandic_Oper_L'
p207
F0.8518518518518519
sS'Rectus_L'
p208
F0.8148148148148148
sS'Rectus_R'
p209
F0.9629629629629629
sS'Rolandic_Oper_R'
p210
F0.8888888888888888
sS'Supp_Motor_Area_R'
p211
F0.9259259259259258
sS'Frontal_Sup_Orb_R'
p212
F0.9629629629629629
sS'Frontal_Mid_L'
p213
F1.0
sS'Frontal_Mid_Orb_L'
p214
F0.6666666666666666
sS'Frontal_Inf_Oper_L'
p215
F0.8518518518518519
sS'Frontal_Med_Orb_L'
p216
F0.8148148148148148
sS'Frontal_Inf_Oper_R'
p217
F0.8888888888888888
sS'Frontal_Med_Orb_R'
p218
F0.9259259259259258
sS'Frontal_Sup_Medial_L'
p219
F0.9259259259259258
sS'Frontal_Mid_R'
p220
F0.9259259259259258
sS'Frontal_Sup_R'
p221
F1.0
sS'Frontal_Sup_Medial_R'
p222
F0.8518518518518519
ssS'topeigenvector_cent'
p223
(lp224
g211
ag219
ag200
ag218
ag204
ag197
ag213
ag220
ag212
ag196
ag206
ag202
asg37
(dp225
g195
F0.5119225937005242
sg196
F0.5208872935063762
sg197
F0.49630196101042584
sg198
F0.471490113988675
sg199
F0.5020376170659929
sg200
F0.4923513885050176
sg201
F0.5279567417066503
sg202
F0.493637837388004
sg203
F0.49035207370125705
sg204
F0.47461795278513375
sg205
F0.5374126016090405
sg206
F0.4876610924194364
sg207
F0.5054145913575802
sg208
F0.49870691238108233
sg209
F0.48312644672892957
sg210
F0.5076518097907889
sg211
F0.4979084273124986
sg212
F0.4970434828168423
sg213
F0.4769695971325175
sg214
F0.5143702484028051
sg215
F0.5068219210650973
sg216
F0.53322758953863
sg217
F0.49619701512441355
sg218
F0.5115489275380803
sg219
F0.5052936581850311
sg220
F0.5143768226631382
sg221
F0.46775806431316147
sg222
F0.5102107503560122
ssS'topccoeff'
p226
(lp227
g207
ag215
ag210
ag222
ag218
ag195
ag214
ag220
ag196
ag201
ag216
ag205
asg41
(dp228
g195
F0.019943019943019943
sg196
F0.014245014245014245
sg197
F0.0
sg198
F0.014245014245014245
sg199
F0.0
sg200
F0.005698005698005698
sg201
F0.0
sg202
F0.0
sg203
F0.008547008547008548
sg204
F0.005698005698005698
sg205
F0.0
sg206
F0.002849002849002849
sg207
F0.011396011396011397
sg208
F0.011396011396011397
sg209
F0.005698005698005698
sg210
F0.0
sg211
F0.0
sg212
F0.0
sg213
F0.0
sg214
F0.0
sg215
F0.005698005698005698
sg216
F0.0
sg217
F0.002849002849002849
sg218
F0.0
sg219
F0.019943019943019943
sg220
F0.0
sg221
F0.005698005698005698
sg222
F0.0
ssS'topbetween_cent'
p229
(lp230
g200
ag204
ag209
ag215
ag221
ag203
ag207
ag208
ag196
ag198
ag195
ag219
asg45
(dp231
g195
F15.319533831222664
sg196
F18.397952573916044
sg197
F18.194455662173578
sg198
F15.259065898942941
sg199
F12.788213291285693
sg200
F17.94946045884229
sg201
F15.80486358504713
sg202
F19.750060360297105
sg203
F13.042298763608718
sg204
F18.37233416455608
sg205
F10.462875543933745
sg206
F19.305413352906854
sg207
F15.802397298541447
sg208
F15.513703679749566
sg209
F17.668705407076505
sg210
F17.242165480396682
sg211
F17.82131456698744
sg212
F18.760340495912256
sg213
F18.49007386610546
sg214
F13.177190986227627
sg215
F16.30594630982395
sg216
F15.596650302538443
sg217
F15.965045151834273
sg218
F18.098557312357148
sg219
F17.59810514196522
sg220
F18.45338667757061
sg221
F17.99112659284771
sg222
F15.731678009405002
ssg47
(dp232
g195
F0.17689843469585886
sg196
F0.2091863898823176
sg197
F0.20529994719932043
sg198
F0.17053585189832965
sg199
F0.1465837467218419
sg200
F0.20219726409932046
sg201
F0.1822317647419997
sg202
F0.21816162793140365
sg203
F0.15003789285904737
sg204
F0.20455641280611309
sg205
F0.12163636949490053
sg206
F0.21410472351567952
sg207
F0.18109450352228115
sg208
F0.17489616059254054
sg209
F0.19789531796540058
sg210
F0.19379533967438833
sg211
F0.20010023299510232
sg212
F0.20806840891278006
sg213
F0.20566600163409368
sg214
F0.15002608233073367
sg215
F0.18499807939302404
sg216
F0.1816666731301909
sg217
F0.18244483607653442
sg218
F0.20364453309650746
sg219
F0.20038456781845185
sg220
F0.207140311316015
sg221
F0.19972890111228636
sg222
F0.17992805442011411
ssS'topdegree_cent'
p233
(lp234
g218
ag219
ag220
ag197
ag200
ag209
ag212
ag202
ag204
ag206
ag213
ag221
asS'topdegrees'
p235
(lp236
g211
ag200
ag221
ag218
ag197
ag204
ag196
ag220
ag213
ag212
ag206
ag202
assS'Audition'
p237
(dp238
g3
(lp239
F0.14016148670138986
asg5
(dp240
S'Frontal_Inf_Tri_L'
p241
F0.9259259259259258
sS'Frontal_Inf_Orb_R'
p242
F0.8518518518518519
sS'Precentral_L'
p243
F0.8518518518518519
sS'Cingulum_Ant_L'
p244
F0.8888888888888888
sS'Cingulum_Ant_R'
p245
F0.7407407407407407
sS'Precentral_R'
p246
F0.8888888888888888
sS'Frontal_Inf_Orb_L'
p247
F0.5925925925925926
sS'Frontal_Inf_Tri_R'
p248
F0.8888888888888888
sS'Frontal_Mid_Orb_R'
p249
F0.18518518518518517
sS'Frontal_Mid_R'
p250
F0.8148148148148148
sS'Frontal_Sup_Orb_L'
p251
F0.07407407407407407
sS'Supp_Motor_Area_L'
p252
F0.8518518518518519
sS'Rolandic_Oper_L'
p253
F0.2222222222222222
sS'Rectus_L'
p254
F0.8148148148148148
sS'Rectus_R'
p255
F0.5185185185185185
sS'Rolandic_Oper_R'
p256
F0.5925925925925926
sS'Supp_Motor_Area_R'
p257
F0.8888888888888888
sS'Frontal_Sup_Orb_R'
p258
F0.5925925925925926
sS'Frontal_Mid_L'
p259
F0.8518518518518519
sS'Frontal_Mid_Orb_L'
p260
F0.5185185185185185
sS'Frontal_Inf_Oper_L'
p261
F0.7777777777777777
sS'Frontal_Med_Orb_L'
p262
F0.7407407407407407
sS'Frontal_Sup_L'
p263
F0.6666666666666666
sS'Frontal_Inf_Oper_R'
p264
F0.8148148148148148
sS'Frontal_Med_Orb_R'
p265
F0.18518518518518517
sS'Frontal_Sup_Medial_L'
p266
F0.7407407407407407
sS'Frontal_Sup_R'
p267
F0.8148148148148148
sS'Frontal_Sup_Medial_R'
p268
F0.6666666666666666
ssS'topeigenvector_cent'
p269
(lp270
g242
ag250
ag263
ag244
ag258
ag268
ag260
ag267
ag246
ag257
ag266
ag259
asg37
(dp271
g241
F0.08670002194525349
sg242
F0.1157296108756067
sg243
F0.11415183345448522
sg244
F0.13060376367807672
sg245
F0.12351437417224993
sg246
F0.13874750620506884
sg247
F0.1250272856658232
sg248
F0.09491853470756219
sg249
F0.16431417012243318
sg250
F0.13233205730297473
sg251
F0.11665046746253362
sg252
F0.09814271017626833
sg253
F0.12632897743747712
sg254
F0.10721534849759347
sg255
F0.09287387290233752
sg256
F0.11311604875499616
sg257
F0.125078258455341
sg258
F0.16776521559090032
sg259
F0.15900160137533256
sg260
F0.21498204674579685
sg261
F0.10058993716291825
sg262
F0.12483151498002255
sg263
F0.17419283011279577
sg264
F0.11571781245484059
sg265
F0.24740596662592837
sg266
F0.2087753904709808
sg267
F0.15899603495093773
sg268
F0.17653329942158877
ssS'topccoeff'
p272
(lp273
g244
ag250
ag246
ag267
ag259
ag249
ag258
ag263
ag268
ag266
ag260
ag265
asg41
(dp274
g241
F0.1225071225071225
sg242
F0.002849002849002849
sg243
F0.025641025641025644
sg244
F0.02849002849002849
sg245
F0.021367521367521368
sg246
F0.07692307692307693
sg247
F0.011396011396011397
sg248
F0.05128205128205129
sg249
F0.0
sg250
F0.0
sg251
F0.0
sg252
F0.29629629629629634
sg253
F0.0
sg254
F0.06267806267806268
sg255
F0.002849002849002849
sg256
F0.009971509971509971
sg257
F0.09686609686609687
sg258
F0.0
sg259
F0.005698005698005698
sg260
F0.0
sg261
F0.05698005698005698
sg262
F0.0
sg263
F0.0
sg264
F0.022792022792022793
sg265
F0.0
sg266
F0.0
sg267
F0.0
sg268
F0.0
ssS'topbetween_cent'
p275
(lp276
g247
ag245
ag264
ag243
ag244
ag248
ag261
ag254
ag246
ag257
ag241
ag252
asg45
(dp277
g241
F2.9936947110860155
sg242
F3.8990800865800863
sg243
F3.0643620268620277
sg244
F4.519750467970283
sg245
F2.6519761956832895
sg246
F5.474445829816673
sg247
F2.730288175876412
sg248
F2.6351374932257285
sg249
F1.2666666666666666
sg250
F4.072666222666222
sg251
F0.30952380952380953
sg252
F2.8894816366784326
sg253
F1.7214646464646466
sg254
F3.0167767015593103
sg255
F2.1998015873015873
sg256
F2.231713125420219
sg257
F6.246413771413771
sg258
F4.405753968253968
sg259
F7.1291138385178625
sg260
F4.283187134502924
sg261
F2.1159021534021525
sg262
F3.180599472990777
sg263
F4.030158730158731
sg264
F3.076158563658564
sg265
F2.061111111111111
sg266
F6.477380952380953
sg267
F5.9436618936618935
sg268
F4.266796112384347
ssg47
(dp278
g241
F0.12042018009585843
sg242
F0.18020860707344954
sg243
F0.14174765470732617
sg244
F0.21710624631271824
sg245
F0.12117716337963982
sg246
F0.280144877860329
sg247
F0.1354058900749933
sg248
F0.11091807822236119
sg249
F0.0526448324029836
sg250
F0.19008732183141738
sg251
F0.01896600098427461
sg252
F0.1386932721526336
sg253
F0.09938278342097945
sg254
F0.12981481381905863
sg255
F0.07064098149141647
sg256
F0.10121308803072207
sg257
F0.3085035372311006
sg258
F0.22621310755195825
sg259
F0.3465785161554653
sg260
F0.2677920675659481
sg261
F0.09283677548929525
sg262
F0.13315500254927964
sg263
F0.19723398825240118
sg264
F0.13330000598950575
sg265
F0.10084569240423306
sg266
F0.3166856731088771
sg267
F0.27170056917564167
sg268
F0.23675817585587008
ssS'topdegree_cent'
p279
(lp280
g254
ag264
ag267
ag242
ag243
ag252
ag259
ag244
ag246
ag248
ag257
ag241
asS'topdegrees'
p281
(lp282
g242
ag263
ag250
ag268
ag260
ag258
ag244
ag246
ag267
ag257
ag266
ag259
assS'Base'
p283
(dp284
g3
(lp285
F0.00802309860781801
asg5
(dp286
S'Frontal_Inf_Tri_L'
p287
F1.0
sS'Frontal_Inf_Orb_R'
p288
F1.0
sS'Precentral_L'
p289
F1.0
sS'Cingulum_Ant_L'
p290
F1.0
sS'Cingulum_Ant_R'
p291
F1.0
sS'Precentral_R'
p292
F1.0
sS'Frontal_Inf_Orb_L'
p293
F1.0
sS'Frontal_Inf_Tri_R'
p294
F1.0
sS'Frontal_Mid_Orb_R'
p295
F1.0
sS'Frontal_Sup_L'
p296
F1.0
sS'Frontal_Sup_Orb_L'
p297
F1.0
sS'Supp_Motor_Area_L'
p298
F1.0
sS'Rolandic_Oper_L'
p299
F1.0
sS'Rectus_L'
p300
F1.0
sS'Rectus_R'
p301
F1.0
sS'Rolandic_Oper_R'
p302
F1.0
sS'Supp_Motor_Area_R'
p303
F1.0
sS'Frontal_Sup_Orb_R'
p304
F1.0
sS'Frontal_Mid_L'
p305
F1.0
sS'Frontal_Mid_Orb_L'
p306
F1.0
sS'Frontal_Inf_Oper_L'
p307
F1.0
sS'Frontal_Med_Orb_L'
p308
F1.0
sS'Frontal_Inf_Oper_R'
p309
F1.0
sS'Frontal_Med_Orb_R'
p310
F1.0
sS'Frontal_Sup_Medial_L'
p311
F1.0
sS'Frontal_Mid_R'
p312
F1.0
sS'Frontal_Sup_R'
p313
F1.0
sS'Frontal_Sup_Medial_R'
p314
F1.0
ssS'topeigenvector_cent'
p315
(lp316
g287
ag295
ag291
ag303
ag293
ag306
ag310
ag311
ag300
ag314
ag299
ag296
asg37
(dp317
g287
F0.1703325606988596
sg288
F0.17347321030840565
sg289
F0.14819530145775092
sg290
F0.1714257189383541
sg291
F0.1756014202222305
sg292
F0.15459938689248753
sg293
F0.1677176848919927
sg294
F0.16568892479373942
sg295
F0.17072026259772446
sg296
F0.19038007610759664
sg297
F0.16958982848733467
sg298
F0.13304680156388535
sg299
F0.1899866984155466
sg300
F0.18115489819506228
sg301
F0.15987026301087473
sg302
F0.15342405335235818
sg303
F0.16442553241913693
sg304
F0.16792040538658295
sg305
F0.15398330478571165
sg306
F0.1771419561392004
sg307
F0.16277951866040616
sg308
F0.16359800475144975
sg309
F0.1465607303898867
sg310
F0.18332013638191705
sg311
F0.181586979222223
sg312
F0.14304727332384684
sg313
F0.17674838260689568
sg314
F0.18734105372505178
ssS'topccoeff'
p318
(lp319
g295
ag290
ag288
ag291
ag313
ag306
ag300
ag311
ag310
ag314
ag299
ag296
asg41
(dp320
g287
F0.019943019943019943
sg288
F0.005698005698005698
sg289
F0.05128205128205129
sg290
F0.0
sg291
F0.014245014245014245
sg292
F0.022792022792022793
sg293
F0.045584045584045586
sg294
F0.0
sg295
F0.008547008547008548
sg296
F0.0
sg297
F0.0
sg298
F0.15954415954415954
sg299
F0.002849002849002849
sg300
F0.019943019943019943
sg301
F0.008547008547008548
sg302
F0.011396011396011397
sg303
F0.042735042735042736
sg304
F0.0
sg305
F0.005698005698005698
sg306
F0.002849002849002849
sg307
F0.07407407407407408
sg308
F0.017094017094017096
sg309
F0.022792022792022793
sg310
F0.0
sg311
F0.002849002849002849
sg312
F0.039886039886039885
sg313
F0.0
sg314
F0.0
ssS'topbetween_cent'
p321
(lp322
g291
ag308
ag287
ag300
ag292
ag309
ag312
ag303
ag293
ag289
ag307
ag298
asg45
(dp323
g287
F0.3609455051112937
sg288
F0.35079694865549826
sg289
F0.28542190190349076
sg290
F0.3380854173643692
sg291
F0.38983096187876437
sg292
F0.3131478132085345
sg293
F0.35340961244237307
sg294
F0.32825465473768334
sg295
F0.35681739253191025
sg296
F0.4230107170677935
sg297
F0.34895934148775076
sg298
F0.2566490845257265
sg299
F0.4185075384280908
sg300
F0.40543464560109677
sg301
F0.30124424562156593
sg302
F0.28418877367030854
sg303
F0.3538004063526867
sg304
F0.3414484856229389
sg305
F0.28372321385655214
sg306
F0.3704394664224498
sg307
F0.35288748135951314
sg308
F0.3150198719389626
sg309
F0.28143207989314556
sg310
F0.37822123705569144
sg311
F0.39932598144350606
sg312
F0.2553518289953842
sg313
F0.3441462818156715
sg314
F0.4077739161589019
ssg47
(dp324
g287
F0.19347000600180128
sg288
F0.1916038583835729
sg289
F0.1515516287738818
sg290
F0.18125050095745374
sg291
F0.19507877907939225
sg292
F0.16452823998698124
sg293
F0.1962248990503967
sg294
F0.17525608812477944
sg295
F0.19397691500396147
sg296
F0.23741336722812134
sg297
F0.19001114610422018
sg298
F0.13523806361916188
sg299
F0.23613222755891372
sg300
F0.2301953459575696
sg301
F0.16582011091606488
sg302
F0.15420758009568664
sg303
F0.19596221985889678
sg304
F0.18568315093994142
sg305
F0.1500865091483953
sg306
F0.20106631130516836
sg307
F0.1861737482693885
sg308
F0.17549494752429545
sg309
F0.15010539287618085
sg310
F0.20618832959117972
sg311
F0.23005005169505016
sg312
F0.1385458072732801
sg313
F0.18859582815834353
sg314
F0.2307799143972274
ssS'topdegree_cent'
p325
(lp326
g303
ag304
ag305
ag306
ag307
ag308
ag309
ag310
ag311
ag312
ag313
ag314
asS'topdegrees'
p327
(lp328
g293
ag303
ag295
ag287
ag306
ag310
ag291
ag311
ag300
ag314
ag299
ag296
assS'Memory'
p329
(dp330
g3
(lp331
F0.03340588368928376
asg5
(dp332
S'Frontal_Inf_Tri_L'
p333
F1.0
sS'Frontal_Inf_Orb_R'
p334
F1.0
sS'Precentral_L'
p335
F0.9629629629629629
sS'Cingulum_Ant_L'
p336
F1.0
sS'Cingulum_Ant_R'
p337
F0.9629629629629629
sS'Precentral_R'
p338
F0.9629629629629629
sS'Frontal_Inf_Orb_L'
p339
F0.9259259259259258
sS'Frontal_Inf_Tri_R'
p340
F1.0
sS'Frontal_Mid_Orb_R'
p341
F0.9259259259259258
sS'Frontal_Sup_L'
p342
F1.0
sS'Frontal_Sup_Orb_L'
p343
F0.8888888888888888
sS'Supp_Motor_Area_L'
p344
F1.0
sS'Rolandic_Oper_L'
p345
F0.7037037037037037
sS'Rectus_L'
p346
F0.9259259259259258
sS'Rectus_R'
p347
F0.7777777777777777
sS'Rolandic_Oper_R'
p348
F0.9259259259259258
sS'Supp_Motor_Area_R'
p349
F0.9629629629629629
sS'Frontal_Sup_Orb_R'
p350
F0.9629629629629629
sS'Frontal_Mid_L'
p351
F1.0
sS'Frontal_Mid_Orb_L'
p352
F0.9259259259259258
sS'Frontal_Inf_Oper_L'
p353
F1.0
sS'Frontal_Med_Orb_L'
p354
F0.9259259259259258
sS'Frontal_Inf_Oper_R'
p355
F1.0
sS'Frontal_Med_Orb_R'
p356
F1.0
sS'Frontal_Sup_Medial_L'
p357
F1.0
sS'Frontal_Mid_R'
p358
F1.0
sS'Frontal_Sup_R'
p359
F1.0
sS'Frontal_Sup_Medial_R'
p360
F1.0
ssS'topeigenvector_cent'
p361
(lp362
g339
ag336
ag355
ag359
ag345
ag341
ag348
ag342
ag357
ag360
ag356
ag347
asg37
(dp363
g333
F0.2212246787469775
sg334
F0.241441854365734
sg335
F0.23921572225705093
sg336
F0.25368662330752123
sg337
F0.24650882565636764
sg338
F0.24591932651704815
sg339
F0.26557978472205995
sg340
F0.23596009221974132
sg341
F0.2894867731633069
sg342
F0.2739590050716311
sg343
F0.24620241021376538
sg344
F0.22858449541672707
sg345
F0.33992466187385373
sg346
F0.2566901006900858
sg347
F0.34394031053227114
sg348
F0.2772922336998263
sg349
F0.24216295051974895
sg350
F0.25890044807864154
sg351
F0.2406172424521629
sg352
F0.2584928458168369
sg353
F0.2082363860856076
sg354
F0.23161645901669245
sg355
F0.2521177888443306
sg356
F0.2841275058717465
sg357
F0.2699910897817378
sg358
F0.2331062543791878
sg359
F0.26275328824280497
sg360
F0.27529441791530884
ssS'topccoeff'
p364
(lp365
g352
ag350
ag359
ag339
ag357
ag342
ag360
ag348
ag356
ag341
ag345
ag347
asg41
(dp366
g333
F0.05698005698005698
sg334
F0.017094017094017096
sg335
F0.04843304843304844
sg336
F0.008547008547008548
sg337
F0.011396011396011397
sg338
F0.002849002849002849
sg339
F0.014245014245014245
sg340
F0.03418803418803419
sg341
F0.0
sg342
F0.0
sg343
F0.005698005698005698
sg344
F0.06837606837606838
sg345
F0.0
sg346
F0.017094017094017096
sg347
F0.0
sg348
F0.0
sg349
F0.019943019943019943
sg350
F0.0
sg351
F0.008547008547008548
sg352
F0.0
sg353
F0.09971509971509972
sg354
F0.022792022792022793
sg355
F0.008547008547008548
sg356
F0.0
sg357
F0.017094017094017096
sg358
F0.019943019943019943
sg359
F0.0
sg360
F0.008547008547008548
ssS'topbetween_cent'
p367
(lp368
g339
ag334
ag346
ag357
ag349
ag358
ag354
ag340
ag335
ag333
ag344
ag353
asg45
(dp369
g333
F0.9117243695290442
sg334
F1.0168740096928315
sg335
F0.9555011811867462
sg336
F1.1489749594243046
sg337
F1.0332852716592813
sg338
F0.9808790312525851
sg339
F1.1062044939719249
sg340
F1.0225868840293524
sg341
F1.224731572943572
sg342
F1.2136107594958172
sg343
F0.9055247679286036
sg344
F0.9611656864807714
sg345
F1.1242502062831394
sg346
F1.0303648989342655
sg347
F1.301546861562005
sg348
F1.1942214068510586
sg349
F0.9709020407451666
sg350
F1.0963442555765608
sg351
F0.9977413422744024
sg352
F1.006897251321816
sg353
F0.792022807472599
sg354
F0.8393814338766845
sg355
F1.1429552864094599
sg356
F1.2803888309562503
sg357
F1.246527759828221
sg358
F0.9757960386011185
sg359
F1.1521372942850334
sg360
F1.2596863762117427
ssg47
(dp370
g333
F0.15965281885819782
sg334
F0.17598185343581713
sg335
F0.16745965952272643
sg336
F0.2009947744307132
sg337
F0.18122464518988243
sg338
F0.17358261818537002
sg339
F0.19270309655089088
sg340
F0.1811716740676493
sg341
F0.20637468913951015
sg342
F0.21572333944494224
sg343
F0.15365856741990214
sg344
F0.170180612137217
sg345
F0.20550307919448157
sg346
F0.18149442525465112
sg347
F0.22969977545800377
sg348
F0.21414811677362158
sg349
F0.17099041834824807
sg350
F0.19212018589812158
sg351
F0.1760919144342899
sg352
F0.1782604629063624
sg353
F0.137327877163566
sg354
F0.14637256800146328
sg355
F0.20116798453830748
sg356
F0.22498893875822645
sg357
F0.21812938810079552
sg358
F0.16928747238801622
sg359
F0.20217815094456104
sg360
F0.22193687657890104
ssS'topdegree_cent'
p371
(lp372
g336
ag340
ag342
ag344
ag351
ag353
ag355
ag356
ag357
ag358
ag359
ag360
asS'topdegrees'
p373
(lp374
g339
ag345
ag355
ag336
ag359
ag348
ag342
ag341
ag357
ag360
ag356
ag347
assS'Vision'
p375
(dp376
g3
(lp377
F0.05614543162354662
asg5
(dp378
S'Frontal_Inf_Tri_L'
p379
F0.9629629629629629
sS'Frontal_Inf_Orb_R'
p380
F0.8888888888888888
sS'Precentral_L'
p381
F0.9629629629629629
sS'Cingulum_Ant_L'
p382
F0.9259259259259258
sS'Cingulum_Ant_R'
p383
F0.8518518518518519
sS'Precentral_R'
p384
F0.9629629629629629
sS'Frontal_Inf_Orb_L'
p385
F0.7777777777777777
sS'Frontal_Inf_Tri_R'
p386
F0.9259259259259258
sS'Frontal_Mid_Orb_R'
p387
F0.6666666666666666
sS'Frontal_Sup_L'
p388
F0.9629629629629629
sS'Frontal_Sup_Orb_L'
p389
F0.5555555555555556
sS'Supp_Motor_Area_L'
p390
F0.9629629629629629
sS'Rolandic_Oper_L'
p391
F0.25925925925925924
sS'Rectus_L'
p392
F0.8148148148148148
sS'Rectus_R'
p393
F0.5925925925925926
sS'Rolandic_Oper_R'
p394
F0.48148148148148145
sS'Supp_Motor_Area_R'
p395
F0.9629629629629629
sS'Frontal_Sup_Orb_R'
p396
F0.5185185185185185
sS'Frontal_Sup_R'
p397
F0.9259259259259258
sS'Frontal_Mid_Orb_L'
p398
F0.7777777777777777
sS'Frontal_Inf_Oper_L'
p399
F0.8518518518518519
sS'Frontal_Med_Orb_L'
p400
F0.7037037037037037
sS'Frontal_Mid_R'
p401
F0.9259259259259258
sS'Frontal_Inf_Oper_R'
p402
F0.8888888888888888
sS'Frontal_Med_Orb_R'
p403
F0.7407407407407407
sS'Frontal_Sup_Medial_L'
p404
F0.8888888888888888
sS'Frontal_Mid_L'
p405
F1.0
sS'Frontal_Sup_Medial_R'
p406
F0.8518518518518519
ssS'topeigenvector_cent'
p407
(lp408
g403
ag385
ag382
ag396
ag406
ag398
ag383
ag379
ag389
ag388
ag397
ag404
asg37
(dp409
g379
F0.11707466850906069
sg380
F0.10914325017319614
sg381
F0.08818951377883032
sg382
F0.11379025258749415
sg383
F0.13732753738178136
sg384
F0.08473799548127316
sg385
F0.13247499592975345
sg386
F0.10777253330714937
sg387
F0.1406017115448909
sg388
F0.13475468617954656
sg389
F0.20346053755226534
sg390
F0.0928012743165941
sg391
F0.17699192047430107
sg392
F0.11709377825937924
sg393
F0.16755006474008682
sg394
F0.11325794658573955
sg395
F0.10323872604692762
sg396
F0.1668602820003111
sg397
F0.13736742887941855
sg398
F0.1616069480858852
sg399
F0.12162868126010071
sg400
F0.13332374205401074
sg401
F0.11317295795678199
sg402
F0.09300660762533228
sg403
F0.13764154814304988
sg404
F0.15466617188569182
sg405
F0.0994963501907964
sg406
F0.144599366776424
ssS'topccoeff'
p410
(lp411
g388
ag383
ag397
ag403
ag387
ag406
ag404
ag398
ag396
ag393
ag391
ag389
asg41
(dp412
g379
F0.0
sg380
F0.008547008547008548
sg381
F0.10826210826210826
sg382
F0.02849002849002849
sg383
F0.0
sg384
F0.24786324786324787
sg385
F0.0
sg386
F0.0
sg387
F0.002849002849002849
sg388
F0.025641025641025644
sg389
F0.0
sg390
F0.13105413105413105
sg391
F0.0
sg392
F0.005698005698005698
sg393
F0.0
sg394
F0.019943019943019943
sg395
F0.07122507122507123
sg396
F0.0
sg397
F0.0
sg398
F0.0
sg399
F0.008547008547008548
sg400
F0.002849002849002849
sg401
F0.039886039886039885
sg402
F0.008547008547008548
sg403
F0.0
sg404
F0.014245014245014245
sg405
F0.039886039886039885
sg406
F0.0
ssS'topbetween_cent'
p413
(lp414
g399
ag402
ag404
ag394
ag388
ag382
ag401
ag405
ag395
ag381
ag390
ag384
asg45
(dp415
g379
F2.195519274327324
sg380
F1.538468640859945
sg381
F1.2012121017188548
sg382
F1.8751035358228245
sg383
F2.217341567289192
sg384
F1.1996667811194925
sg385
F1.7621241477820424
sg386
F1.5379255694226175
sg387
F1.54445759951392
sg388
F2.792604856197762
sg389
F2.3126072757651706
sg390
F1.5757659403230686
sg391
F0.6936868686868687
sg392
F1.3614304658190108
sg393
F1.8561821649282948
sg394
F0.899670277878125
sg395
F1.65952127276294
sg396
F1.5841667165399882
sg397
F2.869194704106292
sg398
F2.4013305594187946
sg399
F1.6747760409525114
sg400
F1.4728613491771387
sg401
F1.7857052642457603
sg402
F1.2236597522204533
sg403
F1.968150465449038
sg404
F2.965424366082261
sg405
F1.7494677907925587
sg406
F2.0456684827040865
ssg47
(dp416
g379
F0.22638589337461462
sg380
F0.140840295154755
sg381
F0.11292477909475372
sg382
F0.18282641658299278
sg383
F0.22297843150521668
sg384
F0.11017561527685078
sg385
F0.1745221914936096
sg386
F0.13907861076805453
sg387
F0.14766353181848832
sg388
F0.31193000546239563
sg389
F0.2621054693533756
sg390
F0.14236357804458413
sg391
F0.07299074250341207
sg392
F0.13423279917186143
sg393
F0.17033564231705103
sg394
F0.08149237242284196
sg395
F0.15898497743926343
sg396
F0.19274683873258436
sg397
F0.3192007850340197
sg398
F0.2217740941954742
sg399
F0.15593389966398116
sg400
F0.14968143878977053
sg401
F0.16961316315291564
sg402
F0.10931923159397451
sg403
F0.17406822735112207
sg404
F0.32182690628182853
sg405
F0.15806336061570034
sg406
F0.21025738228993288
ssS'topdegree_cent'
p417
(lp418
g404
ag382
ag386
ag397
ag401
ag379
ag381
ag384
ag388
ag390
ag395
ag405
asS'topdegrees'
p419
(lp420
g401
ag393
ag382
ag403
ag406
ag379
ag383
ag389
ag398
ag388
ag397
ag404
ass.